(dp0
S'56'
p1
(dp2
S'PDS0300'
p3
S'0011503240000000386905601'
p4
sS'DE049'
p5
S'156'
p6
sS'DE001'
p7
S'0000001000000000000000000000100000010000000000000000000000000000'
p8
sS'DE024'
p9
S'680'
p10
sS'DE025'
p11
S'6862'
p12
sS'PDS0381'
p13
S'C0000000000000000'
p14
sS'PDS0380'
p15
S'D0000000000173645'
p16
sS'PDS0148'
p17
S'1562'
p18
sS'PDS0384'
p19
S'D0000000000173645'
p20
sS'bitmap_primary'
p21
S'1000000000000000000000011000000000000000000000011000000000000000'
p22
sS'MTI'
p23
S'1644'
p24
sS'DE093'
p25
S'003869'
p26
sS'DE071'
p27
S'00000053'
p28
sS'PDS0400'
p29
S'0000000003'
p30
sS'PDS0401'
p31
S'0000000000'
p32
sS'PDS0402'
p33
S'0000000003'
p34
sS'DE100'
p35
S'003869'
p36
ssS'54'
p37
(dp38
S'PDS0159'
p39
S'3869       4631231770                  1US00000001N1503240515032401'
p40
sS'DE049'
p41
S'156'
p42
sS'DE071'
p43
S'00000051'
p44
sS'PDS0191'
p45
S'2'
p46
sS'DE094'
p47
S'001867'
p48
sS'DE023'
p49
S'000'
p50
sS'DE093'
p51
S'003869'
p52
sS'DE100'
p53
S'003869'
p54
sS'DE033'
p55
S'001867'
p56
sS'DE031'
p57
S'55418675083030300156037'
p58
sS'DE010'
p59
S'51927083'
p60
sS'DE012'
p61
S'150316000000'
p62
sS'DE051'
p63
S'392'
p64
sS'DE050'
p65
S'840'
p66
sS'PDS0158'
p67
S'MCC20400018515032405    NNNNNN'
p68
sS'DE038'
p69
S'623601'
p70
sS'PDS0177'
p71
S'YY'
p72
sg23
S'1240'
p73
sS'DE111'
p74
S'012000000000'
p75
sS'PDS0146'
p76
S'002901840000000000010840000000000010'
p77
sS'DE006'
p78
S'000000000925'
p79
sS'PDS0023'
p80
S'POI'
p81
sS'DE004'
p82
S'000000004800'
p83
sS'DE005'
p84
S'000000000774'
p85
sS'DE002'
p86
S'5442999999999999'
p87
sS'DE003'
p88
S'000000'
p89
sg7
S'0000001000000000000000000000110000010000000000100000000000000000'
p90
sS'DE024'
p91
S'200'
p92
sS'DE025'
p93
S'1400'
p94
sS'DE026'
p95
S'5311'
p96
sS'PDS0148'
p97
S'156284023920'
p98
sS'DE022'
p99
S'D00301C99300'
p100
sS'DE009'
p101
S'71612500'
p102
sg21
S'1111110011010000000001111100001010000101011000011110000000000010'
p103
sS'DE042'
p104
S'0303404871     '
p105
sS'DE063'
p106
S' MCSJQC16A0316  '
p107
sS'DE043'
p108
S'XIANGXUEHAI INTERNATIO\\NO1,Fuxingmen NeiDajie,Beijing,China\\SHANGHAI\\100818       CHN'
p109
sS'PDS0002'
p110
S'MCS'
p111
sS'PDS0003'
p112
S'MCS'
p113
sS'DE040'
p114
S'201'
p115
sS'PDS0165'
p116
S'M'
p117
ssS'42'
p118
(dp119
g7
S'0000001000000000000000000000110000010000000000000000000000000000'
p120
sS'DE024'
p121
S'640'
p122
sS'DE050'
p123
S'840'
p124
sg21
S'1000000000000000000000010000000000000000000000010100000000000000'
p125
sg23
S'1644'
p126
sS'DE071'
p127
S'00000039'
p128
sS'DE094'
p129
S'001662'
p130
sS'DE100'
p131
S'003869'
p132
sS'DE093'
p133
S'003869'
p134
sS'PDS0164'
p135
S'35686224500000S1503240636051302500000S1503240636861166000000S1503240637693980800000S1503240638871151893000S1503240639271196000000S1503240639871860400000S1503240640090708900000S1503240640489205000000S1503240641061108230000S15032406'
p136
ssS'48'
p137
(dp138
g7
S'0000001000000000000000000000110000010000000000000000000000000000'
p139
sS'DE024'
p140
S'640'
p141
sS'DE050'
p142
S'840'
p143
sg21
S'1000000000000000000000010000000000000000000000010100000000000000'
p144
sg23
S'1644'
p145
sS'DE071'
p146
S'00000045'
p147
sS'DE094'
p148
S'001662'
p149
sS'DE100'
p150
S'003869'
p151
sS'DE093'
p152
S'003869'
p153
sS'PDS0164'
p154
S'76483273430000S1503240677692067397000S1503240678096363100000S1503240678493673000000S1503240678891918700000S1503240680062965000000S1503240680785724790000S1503240681897630100000S1503240682690668807000S1503240683461848000000S15032406'
p155
ssS'43'
p156
(dp157
g7
S'0000001000000000000000000000110000010000000000000000000000000000'
p158
sS'DE024'
p159
S'640'
p160
sS'DE050'
p161
S'840'
p162
sg21
S'1000000000000000000000010000000000000000000000010100000000000000'
p163
sg23
S'1644'
p164
sS'DE071'
p165
S'00000040'
p166
sS'DE094'
p167
S'001662'
p168
sS'DE100'
p169
S'003869'
p170
sS'DE093'
p171
S'003869'
p172
sS'PDS0164'
p173
S'41490300100000S1503240641786231250000S1503240641868140000000S1503240642261514000000S1503240642681198600000S1503240643088500000000S1503240643491400000000S1503240644092854200000S1503240644697988680000S1503240645474468500000S15032406'
p174
ssS'49'
p175
(dp176
g7
S'0000001000000000000000000000110000010000000000000000000000000000'
p177
sS'DE024'
p178
S'640'
p179
sS'DE050'
p180
S'840'
p181
sg21
S'1000000000000000000000010000000000000000000000010100000000000000'
p182
sg23
S'1644'
p183
sS'DE071'
p184
S'00000046'
p185
sS'DE094'
p186
S'001662'
p187
sS'DE100'
p188
S'003869'
p189
sS'DE093'
p190
S'003869'
p191
sS'PDS0164'
p192
S'84091000000000S1503240685882555000000S1503240686062478230000S1503240688292550370000S1503240688672149100000S1503240690183128600000S1503240693493649000000S1503240693693640500000S1503240693781200000000S1503240694171104300000S15032406'
p193
ssS'52'
p194
(dp195
g7
S'0000001000000000000000000000110000010000000000000000000000000000'
p196
sS'DE024'
p197
S'640'
p198
sS'DE050'
p199
S'840'
p200
sg21
S'1000000000000000000000010000000000000000000000010100000000000000'
p201
sg23
S'1644'
p202
sS'DE071'
p203
S'00000049'
p204
sS'DE094'
p205
S'001662'
p206
sS'DE100'
p207
S'003869'
p208
sS'DE093'
p209
S'003869'
p210
sS'PDS0164'
p211
S'98192243600000S1503240698593843100000S1503240698693178000000S1503240699671893901380S15032406'
p212
ssS'53'
p213
(dp214
S'PDS0159'
p215
S'3869       4631231770                  1US00000001N1503240515032401'
p216
sS'DE049'
p217
S'156'
p218
sS'DE071'
p219
S'00000050'
p220
sS'PDS0191'
p221
g46
sS'DE094'
p222
S'001867'
p223
sS'DE023'
p224
S'000'
p225
sS'DE093'
p226
S'003869'
p227
sS'DE100'
p228
S'003869'
p229
sS'DE033'
p230
S'001867'
p231
sS'DE031'
p232
S'55418675083030300156029'
p233
sS'DE010'
p234
S'51924000'
p235
sS'DE012'
p236
S'150316000000'
p237
sS'DE051'
p238
S'392'
p239
sS'DE050'
p240
S'840'
p241
sS'PDS0158'
p242
S'MCC20400018515032405    NNNNNN'
p243
sS'DE038'
p244
S'647616'
p245
sS'PDS0177'
p246
S'YY'
p247
sg23
S'1240'
p248
sS'DE111'
p249
S'012000000000'
p250
sS'PDS0146'
p251
S'002901840000000000005840000000000005'
p252
sS'DE006'
p253
S'000000000481'
p254
sS'PDS0023'
p255
S'POI'
p256
sS'DE004'
p257
S'000000002500'
p258
sS'DE005'
p259
S'000000000403'
p260
sS'DE002'
p261
S'5442999999999999'
p262
sS'DE003'
p263
S'000000'
p264
sg7
S'0000001000000000000000000000110000010000000000100000000000000000'
p265
sS'DE024'
p266
S'200'
p267
sS'DE025'
p268
S'1400'
p269
sS'DE026'
p270
S'5311'
p271
sS'PDS0148'
p272
S'156284023920'
p273
sS'DE022'
p274
S'D00301C99300'
p275
sS'DE009'
p276
S'71612000'
p277
sg21
S'1111110011010000000001111100001010000101011000011110000000000010'
p278
sS'DE042'
p279
S'0303404871     '
p280
sS'DE063'
p281
S' MCSJQVS6A0316  '
p282
sS'DE043'
p283
S'XIANGXUEHAI INTERNATIO\\NO1,Fuxingmen NeiDajie,Beijing,China\\SHANGHAI\\100818       CHN'
p284
sS'PDS0002'
p285
S'MCS'
p286
sS'PDS0003'
p287
S'MCS'
p288
sS'DE040'
p289
S'201'
p290
sS'PDS0165'
p291
g117
ssS'24'
p292
(dp293
g7
S'0000001000000000000000000000110000010000000000000000000000000000'
p294
sS'DE024'
p295
S'640'
p296
sS'DE050'
p297
S'840'
p298
sg21
S'1000000000000000000000010000000000000000000000010100000000000000'
p299
sg23
S'1644'
p300
sS'DE071'
p301
S'00000021'
p302
sS'DE094'
p303
S'001662'
p304
sS'DE100'
p305
S'003869'
p306
sS'DE093'
p307
S'003869'
p308
sS'PDS0164'
p309
S'19197017100000B1503240619291000000000B1503240620382507300000B1503240620896922000000B1503240621484465000000B1503240622298750000000B1503240623082020000000B1503240623890668673000B1503240624292014099000B1503240626271767500000B15032406'
p310
ssS'25'
p311
(dp312
g7
S'0000001000000000000000000000110000010000000000000000000000000000'
p313
sS'DE024'
p314
S'640'
p315
sS'DE050'
p316
S'840'
p317
sg21
S'1000000000000000000000010000000000000000000000010100000000000000'
p318
sg23
S'1644'
p319
sS'DE071'
p320
S'00000022'
p321
sS'DE094'
p322
S'001662'
p323
sS'DE100'
p324
S'003869'
p325
sS'DE093'
p326
S'003869'
p327
sS'PDS0164'
p328
S'27084260000000B1503240629290668673000B1503240632097633000000B1503240632467220000000B1503240632872032100000B1503240633284711140000B1503240634082139000000B1503240634497755600000B1503240634872766700000B1503240635271366500000B15032406'
p329
ssS'26'
p330
(dp331
g7
S'0000001000000000000000000000110000010000000000000000000000000000'
p332
sS'DE024'
p333
S'640'
p334
sS'DE050'
p335
S'840'
p336
sg21
S'1000000000000000000000010000000000000000000000010100000000000000'
p337
sg23
S'1644'
p338
sS'DE071'
p339
S'00000023'
p340
sS'DE094'
p341
S'001662'
p342
sS'DE100'
p343
S'003869'
p344
sS'DE093'
p345
S'003869'
p346
sS'PDS0164'
p347
S'35686221500000B1503240636051301400000B1503240636861164000000B1503240637693974800000B1503240638871147126000B1503240639271195700000B1503240639871859900000B1503240640090708400000B1503240640489185000000B1503240641061106230000B15032406'
p348
ssS'27'
p349
(dp350
g7
S'0000001000000000000000000000110000010000000000000000000000000000'
p351
sS'DE024'
p352
S'640'
p353
sS'DE050'
p354
S'840'
p355
sg21
S'1000000000000000000000010000000000000000000000010100000000000000'
p356
sg23
S'1644'
p357
sS'DE071'
p358
S'00000024'
p359
sS'DE094'
p360
S'001662'
p361
sS'DE100'
p362
S'003869'
p363
sS'DE093'
p364
S'003869'
p365
sS'PDS0164'
p366
S'41490299100000B1503240641786231250000B1503240641868090000000B1503240642261501000000B1503240642681193500000B1503240643088400000000B1503240643491395000000B1503240644092853600000B1503240644697987650000B1503240645474268500000B15032406'
p367
ssS'20'
p368
(dp369
g7
S'0000001000000000000000000000110000010000000000000000000000000000'
p370
sS'DE024'
p371
S'640'
p372
sS'DE050'
p373
S'840'
p374
sg21
S'1000000000000000000000010000000000000000000000010100000000000000'
p375
sg23
S'1644'
p376
sS'DE071'
p377
S'00000017'
p378
sS'DE094'
p379
S'001662'
p380
sS'DE100'
p381
S'003869'
p382
sS'DE093'
p383
S'003869'
p384
sS'PDS0164'
p385
S'98192227800000M1503240698593841850000M1503240698693177700000M1503240699671893901380M15032406'
p386
ssS'21'
p387
(dp388
g7
S'0000001000000000000000000000110000010000000000000000000000000000'
p389
sS'DE024'
p390
S'640'
p391
sS'DE050'
p392
S'840'
p393
sg21
S'1000000000000000000000010000000000000000000000010100000000000000'
p394
sg23
S'1644'
p395
sS'DE071'
p396
S'00000018'
p397
sS'DE094'
p398
S'001662'
p399
sS'DE100'
p400
S'003869'
p401
sS'DE093'
p402
S'003869'
p403
sS'PDS0164'
p404
S'00871288600000B1503240601289579840000B1503240603298795000000B1503240603691287996000B1503240604491000000000B1503240604890377000000B1503240605087778000000B1503240605174777100000B1503240605291990000000B1503240606091000000000B15032406'
p405
ssS'22'
p406
(dp407
g7
S'0000001000000000000000000000110000010000000000000000000000000000'
p408
sS'DE024'
p409
S'640'
p410
sS'DE050'
p411
S'840'
p412
sg21
S'1000000000000000000000010000000000000000000000010100000000000000'
p413
sg23
S'1644'
p414
sS'DE071'
p415
S'00000019'
p416
sS'DE094'
p417
S'001662'
p418
sS'DE100'
p419
S'003869'
p420
sS'DE093'
p421
S'003869'
p422
sS'PDS0164'
p423
S'06486227000000B1503240606896860000000B1503240607299852217000B1503240608491982500000B1503240609097633588000B1503240609691378600000B1503240610461034000000B1503240610861531100000B1503240611664005000000B1503240612491261200000B15032406'
p424
ssS'23'
p425
(dp426
g7
S'0000001000000000000000000000110000010000000000000000000000000000'
p427
sS'DE024'
p428
S'640'
p429
sS'DE050'
p430
S'840'
p431
sg21
S'1000000000000000000000010000000000000000000000010100000000000000'
p432
sg23
S'1644'
p433
sS'DE071'
p434
S'00000020'
p435
sS'DE094'
p436
S'001662'
p437
sS'DE100'
p438
S'003869'
p439
sS'DE093'
p440
S'003869'
p441
sS'PDS0164'
p442
S'13271002500000B1503240613690833300000B1503240614471331000000B1503240615276258000000B1503240615696213500000B1503240615796215300000B1503240615896083352000B1503240617062586950000B1503240617474625000000B1503240618875264000000B15032406'
p443
ssS'46'
p444
(dp445
g7
S'0000001000000000000000000000110000010000000000000000000000000000'
p446
sS'DE024'
p447
S'640'
p448
sS'DE050'
p449
S'840'
p450
sg21
S'1000000000000000000000010000000000000000000000010100000000000000'
p451
sg23
S'1644'
p452
sS'DE071'
p453
S'00000043'
p454
sS'DE094'
p455
S'001662'
p456
sS'DE100'
p457
S'003869'
p458
sS'DE093'
p459
S'003869'
p460
sS'PDS0164'
p461
S'59892710027000S1503240660064819650000S1503240660493079000000S1503240660884476000000S1503240663493641600000S1503240664385988300000S1503240664676960000000S1503240665490649984000S1503240667852317700000S1503240668293750500000S15032406'
p462
ssS'47'
p463
(dp464
g7
S'0000001000000000000000000000110000010000000000000000000000000000'
p465
sS'DE024'
p466
S'640'
p467
sS'DE050'
p468
S'840'
p469
sg21
S'1000000000000000000000010000000000000000000000010100000000000000'
p470
sg23
S'1644'
p471
sS'DE071'
p472
S'00000044'
p473
sS'DE094'
p474
S'001662'
p475
sS'DE100'
p476
S'003869'
p477
sS'DE093'
p478
S'003869'
p479
sS'PDS0164'
p480
S'69081389710000S1503240669464420000000S1503240670291379000000S1503240670452156000000S1503240670677110000000S1503240671081190640000S1503240672892962300000S1503240674881198400000S1503240675298658700000S1503240675690981200000S15032406'
p481
ssS'44'
p482
(dp483
g7
S'0000001000000000000000000000110000010000000000000000000000000000'
p484
sS'DE024'
p485
S'640'
p486
sS'DE050'
p487
S'840'
p488
sg21
S'1000000000000000000000010000000000000000000000010100000000000000'
p489
sg23
S'1644'
p490
sS'DE071'
p491
S'00000041'
p492
sS'DE094'
p493
S'001662'
p494
sS'DE100'
p495
S'003869'
p496
sS'DE093'
p497
S'003869'
p498
sS'PDS0164'
p499
S'45893696500000S1503240646281561000000S1503240647873170000000S1503240648083685000000S1503240648481494930000S1503240649661995000000S1503240649881868000000S1503240650499874000000S1503240651290385030000S1503240651681196140000S15032406'
p500
ssS'45'
p501
(dp502
g7
S'0000001000000000000000000000110000010000000000000000000000000000'
p503
sS'DE024'
p504
S'640'
p505
sS'DE050'
p506
S'840'
p507
sg21
S'1000000000000000000000010000000000000000000000010100000000000000'
p508
sg23
S'1644'
p509
sS'DE071'
p510
S'00000042'
p511
sS'DE094'
p512
S'001662'
p513
sS'DE100'
p514
S'003869'
p515
sS'DE093'
p516
S'003869'
p517
sS'PDS0164'
p518
S'52471001400000S1503240653291790000000S1503240653391790000000S1503240654871060000000S1503240655491309072000S1503240655882625000000S1503240656671997500000S1503240657898072200000S1503240658671019000000S1503240659091000000000S15032406'
p519
ssS'28'
p520
(dp521
g7
S'0000001000000000000000000000110000010000000000000000000000000000'
p522
sS'DE024'
p523
S'640'
p524
sS'DE050'
p525
S'840'
p526
sg21
S'1000000000000000000000010000000000000000000000010100000000000000'
p527
sg23
S'1644'
p528
sS'DE071'
p529
S'00000025'
p530
sS'DE094'
p531
S'001662'
p532
sS'DE100'
p533
S'003869'
p534
sS'DE093'
p535
S'003869'
p536
sS'PDS0164'
p537
S'45893695500000B1503240646281527000000B1503240647873120000000B1503240648083655000000B1503240648481494430000B1503240649661984000000B1503240649881858000000B1503240650499805185000B1503240651290385000000B1503240651681195080000B15032406'
p538
ssS'29'
p539
(dp540
g7
S'0000001000000000000000000000110000010000000000000000000000000000'
p541
sS'DE024'
p542
S'640'
p543
sS'DE050'
p544
S'840'
p545
sg21
S'1000000000000000000000010000000000000000000000010100000000000000'
p546
sg23
S'1644'
p547
sS'DE071'
p548
S'00000026'
p549
sS'DE094'
p550
S'001662'
p551
sS'DE100'
p552
S'003869'
p553
sS'DE093'
p554
S'003869'
p555
sS'PDS0164'
p556
S'52489914000000B1503240653291790000000B1503240653391790000000B1503240654871040000000B1503240655491308387000B1503240655882625000000B1503240656671996500000B1503240657898068700000B1503240658671017900000B1503240659091000000000B15032406'
p557
ssS'40'
p558
(dp559
g7
S'0000001000000000000000000000110000010000000000000000000000000000'
p560
sS'DE024'
p561
S'640'
p562
sS'DE050'
p563
S'840'
p564
sg21
S'1000000000000000000000010000000000000000000000010100000000000000'
p565
sg23
S'1644'
p566
sS'DE071'
p567
S'00000037'
p568
sS'DE094'
p569
S'001662'
p570
sS'DE100'
p571
S'003869'
p572
sS'DE093'
p573
S'003869'
p574
sS'PDS0164'
p575
S'19197023300000S1503240619291000000000S1503240620382512600000S1503240620896923500000S1503240621484475000000S1503240622298750000000S1503240623082080000000S1503240623890668807000S1503240624292055498000S1503240626271767500000S15032406'
p576
ssS'41'
p577
(dp578
g7
S'0000001000000000000000000000110000010000000000000000000000000000'
p579
sS'DE024'
p580
S'640'
p581
sS'DE050'
p582
S'840'
p583
sg21
S'1000000000000000000000010000000000000000000000010100000000000000'
p584
sg23
S'1644'
p585
sS'DE071'
p586
S'00000038'
p587
sS'DE094'
p588
S'001662'
p589
sS'DE100'
p590
S'003869'
p591
sS'DE093'
p592
S'003869'
p593
sS'PDS0164'
p594
S'27084360000000S1503240629290668807000S1503240632097636000000S1503240632467420000000S1503240632872092100000S1503240633284745240000S1503240634082139000000S1503240634497756100000S1503240634872769200000S1503240635271373100000S15032406'
p595
ssS'1'
p596
(dp597
g7
S'0000001000000000000000000000000000000000000000000000000000000000'
p598
sS'DE024'
p599
S'697'
p600
sg21
S'1000000000000000000000010000000000000000000000010000000000000000'
p601
sg23
S'1644'
p602
sS'PDS0105'
p603
S'0011503240000000386999601'
p604
sS'PDS0122'
p605
S'T'
p606
sS'DE071'
p607
S'00000001'
p608
ssS'3'
p609
(dp610
S'PDS0159'
p611
S'3869       4631231770                  1US00000001N1503240515032401'
p612
sS'DE049'
p613
S'156'
p614
sS'DE071'
p615
S'00000050'
p616
sS'PDS0191'
p617
g46
sS'DE094'
p618
S'001867'
p619
sS'DE023'
p620
S'000'
p621
sS'DE093'
p622
S'003869'
p623
sS'DE100'
p624
S'003869'
p625
sS'DE033'
p626
S'001867'
p627
sS'DE031'
p628
S'55418675083030300156029'
p629
sS'DE010'
p630
S'51924000'
p631
sS'DE012'
p632
S'150316000000'
p633
sS'DE051'
p634
S'392'
p635
sS'DE050'
p636
S'840'
p637
sS'PDS0158'
p638
S'MCC20400018515032405    NNNNNN'
p639
sS'DE038'
p640
S'647616'
p641
sS'PDS0177'
p642
S'YY'
p643
sg23
S'1240'
p644
sS'DE111'
p645
S'012000000000'
p646
sS'PDS0146'
p647
S'002901840000000000005840000000000005'
p648
sS'DE006'
p649
S'000000000481'
p650
sS'PDS0023'
p651
S'POI'
p652
sS'DE004'
p653
S'000000002500'
p654
sS'DE005'
p655
S'000000000403'
p656
sS'DE002'
p657
S'5442999999999999'
p658
sS'DE003'
p659
S'000000'
p660
sg7
S'0000001000000000000000000000110000010000000000100000000000000000'
p661
sS'DE024'
p662
S'200'
p663
sS'DE025'
p664
S'1400'
p665
sS'DE026'
p666
S'5311'
p667
sS'PDS0148'
p668
S'156284023920'
p669
sS'DE022'
p670
S'D00301C99300'
p671
sS'DE009'
p672
S'71612000'
p673
sg21
S'1111110011010000000001111100001010000101011000011110000000000010'
p674
sS'DE042'
p675
S'0303404871     '
p676
sS'DE063'
p677
S' MCSJQVS6A0316  '
p678
sS'DE043'
p679
S'XIANGXUEHAI INTERNATIO\\NO1,Fuxingmen NeiDajie,Beijing,China\\SHANGHAI\\100818       CHN'
p680
sS'PDS0002'
p681
S'MCS'
p682
sS'PDS0003'
p683
S'MCS'
p684
sS'DE040'
p685
S'201'
p686
sS'PDS0165'
p687
g117
ssg46
(dp688
g7
S'0000001000000000000000000000110000010000000000000000000000000000'
p689
sS'DE024'
p690
S'640'
p691
sS'DE050'
p692
S'840'
p693
sg21
S'1000000000000000000000010000000000000000000000010100000000000000'
p694
sg23
S'1644'
p695
sS'DE071'
p696
S'00000005'
p697
sS'DE094'
p698
S'001662'
p699
sS'DE100'
p700
S'003869'
p701
sS'DE093'
p702
S'003869'
p703
sS'PDS0164'
p704
S'19197020200000M1503240619291000000000M1503240620382509950000M1503240620896922750000M1503240621484470000000M1503240622298750000000M1503240623082050000000M1503240623890668740000M1503240624292034799000M1503240626271767500000M15032406'
p705
ssS'5'
p706
(dp707
g7
S'0000001000000000000000000000110000010000000000000000000000000000'
p708
sS'DE024'
p709
S'640'
p710
sS'DE050'
p711
S'840'
p712
sg21
S'1000000000000000000000010000000000000000000000010100000000000000'
p713
sg23
S'1644'
p714
sS'DE071'
p715
S'00000002'
p716
sS'DE094'
p717
S'001662'
p718
sS'DE100'
p719
S'003869'
p720
sS'DE093'
p721
S'003869'
p722
sS'PDS0164'
p723
S'00871289950000M1503240601289605740000M1503240603298797500000M1503240603691288245000M1503240604491000000000M1503240604890377015000M1503240605087790500000M1503240605174777100000M1503240605292008840000M1503240606091000000000M15032406'
p724
ssS'4'
p725
(dp726
g7
S'0000001000000000000000000000000000000000000000000000000000000000'
p727
sS'DE024'
p728
S'697'
p729
sg21
S'1000000000000000000000010000000000000000000000010000000000000000'
p730
sg23
S'1644'
p731
sS'PDS0105'
p732
S'0011503240000000386999601'
p733
sS'PDS0122'
p734
g606
sS'DE071'
p735
S'00000001'
p736
ssS'7'
p737
(dp738
g7
S'0000001000000000000000000000110000010000000000000000000000000000'
p739
sS'DE024'
p740
S'640'
p741
sS'DE050'
p742
S'840'
p743
sg21
S'1000000000000000000000010000000000000000000000010100000000000000'
p744
sg23
S'1644'
p745
sS'DE071'
p746
S'00000004'
p747
sS'DE094'
p748
S'001662'
p749
sS'DE100'
p750
S'003869'
p751
sS'DE093'
p752
S'003869'
p753
sS'PDS0164'
p754
S'13271005000000M1503240613690833300000M1503240614471333000000M1503240615276262000000M1503240615696213500000M1503240615796216050000M1503240615896083352000M1503240617062587705000M1503240617474630000000M1503240618875339000000M15032406'
p755
ssS'6'
p756
(dp757
g7
S'0000001000000000000000000000110000010000000000000000000000000000'
p758
sS'DE024'
p759
S'640'
p760
sS'DE050'
p761
S'840'
p762
sg21
S'1000000000000000000000010000000000000000000000010100000000000000'
p763
sg23
S'1644'
p764
sS'DE071'
p765
S'00000003'
p766
sS'DE094'
p767
S'001662'
p768
sS'DE100'
p769
S'003869'
p770
sS'DE093'
p771
S'003869'
p772
sS'PDS0164'
p773
S'06486227500000M1503240606896910000000M1503240607299866820000M1503240608492000000000M1503240609097723044000M1503240609691378800000M1503240610461035000000M1503240610861556100000M1503240611664010000000M1503240612491261350000M15032406'
p774
ssS'9'
p775
(dp776
g7
S'0000001000000000000000000000110000010000000000000000000000000000'
p777
sS'DE024'
p778
S'640'
p779
sS'DE050'
p780
S'840'
p781
sg21
S'1000000000000000000000010000000000000000000000010100000000000000'
p782
sg23
S'1644'
p783
sS'DE071'
p784
S'00000006'
p785
sS'DE094'
p786
S'001662'
p787
sS'DE100'
p788
S'003869'
p789
sS'DE093'
p790
S'003869'
p791
sS'PDS0164'
p792
S'27084310000000M1503240629290668740000M1503240632097634500000M1503240632467320000000M1503240632872062100000M1503240633284728190000M1503240634082139000000M1503240634497755850000M1503240634872767950000M1503240635271369800000M15032406'
p793
ssS'8'
p794
(dp795
g7
S'0000001000000000000000000000110000010000000000000000000000000000'
p796
sS'DE024'
p797
S'640'
p798
sS'DE050'
p799
S'840'
p800
sg21
S'1000000000000000000000010000000000000000000000010100000000000000'
p801
sg23
S'1644'
p802
sS'DE071'
p803
S'00000005'
p804
sS'DE094'
p805
S'001662'
p806
sS'DE100'
p807
S'003869'
p808
sS'DE093'
p809
S'003869'
p810
sS'PDS0164'
p811
S'19197020200000M1503240619291000000000M1503240620382509950000M1503240620896922750000M1503240621484470000000M1503240622298750000000M1503240623082050000000M1503240623890668740000M1503240624292034799000M1503240626271767500000M15032406'
p812
ssS'51'
p813
(dp814
g7
S'0000001000000000000000000000110000010000000000000000000000000000'
p815
sS'DE024'
p816
S'640'
p817
sS'DE050'
p818
S'840'
p819
sg21
S'1000000000000000000000010000000000000000000000010100000000000000'
p820
sg23
S'1644'
p821
sS'DE071'
p822
S'00000048'
p823
sS'DE094'
p824
S'001662'
p825
sS'DE100'
p826
S'003869'
p827
sS'DE093'
p828
S'003869'
p829
sS'PDS0164'
p830
S'96962997000000S1503240697185770000000S1503240697295700900000S1503240697371078950000S1503240697451468000000S1503240697591796200000S1503240697679260000000S1503240697791796847000S1503240697890913910000S1503240698082280000000S15032406'
p831
ssS'39'
p832
(dp833
g7
S'0000001000000000000000000000110000010000000000000000000000000000'
p834
sS'DE024'
p835
S'640'
p836
sS'DE050'
p837
S'840'
p838
sg21
S'1000000000000000000000010000000000000000000000010100000000000000'
p839
sg23
S'1644'
p840
sS'DE071'
p841
S'00000036'
p842
sS'DE094'
p843
S'001662'
p844
sS'DE100'
p845
S'003869'
p846
sS'DE093'
p847
S'003869'
p848
sS'PDS0164'
p849
S'13271007500000S1503240613690833300000S1503240614471335000000S1503240615276266000000S1503240615696213500000S1503240615796216800000S1503240615896083352000S1503240617062588460000S1503240617474635000000S1503240618875414000000S15032406'
p850
ssS'38'
p851
(dp852
g7
S'0000001000000000000000000000110000010000000000000000000000000000'
p853
sS'DE024'
p854
S'640'
p855
sS'DE050'
p856
S'840'
p857
sg21
S'1000000000000000000000010000000000000000000000010100000000000000'
p858
sg23
S'1644'
p859
sS'DE071'
p860
S'00000035'
p861
sS'DE094'
p862
S'001662'
p863
sS'DE100'
p864
S'003869'
p865
sS'DE093'
p866
S'003869'
p867
sS'PDS0164'
p868
S'06486228000000S1503240606896960000000S1503240607299881423000S1503240608492017500000S1503240609097812500000S1503240609691379000000S1503240610461036000000S1503240610861581100000S1503240611664015000000S1503240612491261500000S15032406'
p869
ssS'58'
p870
(dp871
S'PDS0301'
p872
S'0000000000173645'
p873
sS'PDS0306'
p874
S'00000055'
p875
sg7
S'0000001000000000000000000000000000000000000000000000000000000000'
p876
sS'DE024'
p877
S'695'
p878
sg21
S'1000000000000000000000010000000000000000000000010000000000000000'
p879
sg23
S'1644'
p880
sS'PDS0105'
p881
S'0011503240000000386999601'
p882
sS'DE071'
p883
S'00000055'
p884
ssS'11'
p885
(dp886
g7
S'0000001000000000000000000000110000010000000000000000000000000000'
p887
sS'DE024'
p888
S'640'
p889
sS'DE050'
p890
S'840'
p891
sg21
S'1000000000000000000000010000000000000000000000010100000000000000'
p892
sg23
S'1644'
p893
sS'DE071'
p894
S'00000008'
p895
sS'DE094'
p896
S'001662'
p897
sS'DE100'
p898
S'003869'
p899
sS'DE093'
p900
S'003869'
p901
sS'PDS0164'
p902
S'41490299600000M1503240641786231250000M1503240641868115000000M1503240642261507500000M1503240642681196050000M1503240643088450000000M1503240643491397500000M1503240644092853900000M1503240644697988165000M1503240645474368500000M15032406'
p903
ssS'10'
p904
(dp905
g7
S'0000001000000000000000000000110000010000000000000000000000000000'
p906
sS'DE024'
p907
S'640'
p908
sS'DE050'
p909
S'840'
p910
sg21
S'1000000000000000000000010000000000000000000000010100000000000000'
p911
sg23
S'1644'
p912
sS'DE071'
p913
S'00000007'
p914
sS'DE094'
p915
S'001662'
p916
sS'DE100'
p917
S'003869'
p918
sS'DE093'
p919
S'003869'
p920
sS'PDS0164'
p921
S'35686223000000M1503240636051301950000M1503240636861165000000M1503240637693977800000M1503240638871149509500M1503240639271195850000M1503240639871860150000M1503240640090708650000M1503240640489195000000M1503240641061107230000M15032406'
p922
ssS'13'
p923
(dp924
g7
S'0000001000000000000000000000110000010000000000000000000000000000'
p925
sS'DE024'
p926
S'640'
p927
sS'DE050'
p928
S'840'
p929
sg21
S'1000000000000000000000010000000000000000000000010100000000000000'
p930
sg23
S'1644'
p931
sS'DE071'
p932
S'00000010'
p933
sS'DE094'
p934
S'001662'
p935
sS'DE100'
p936
S'003869'
p937
sS'DE093'
p938
S'003869'
p939
sS'PDS0164'
p940
S'52489964000000M1503240653291790000000M1503240653391790000000M1503240654871050000000M1503240655491308729000M1503240655882625000000M1503240656671997000000M1503240657898070450000M1503240658671018450000M1503240659091000000000M15032406'
p941
ssS'12'
p942
(dp943
g7
S'0000001000000000000000000000110000010000000000000000000000000000'
p944
sS'DE024'
p945
S'640'
p946
sS'DE050'
p947
S'840'
p948
sg21
S'1000000000000000000000010000000000000000000000010100000000000000'
p949
sg23
S'1644'
p950
sS'DE071'
p951
S'00000009'
p952
sS'DE094'
p953
S'001662'
p954
sS'DE100'
p955
S'003869'
p956
sS'DE093'
p957
S'003869'
p958
sS'PDS0164'
p959
S'45893696000000M1503240646281544000000M1503240647873145000000M1503240648083670000000M1503240648481494680000M1503240649661989500000M1503240649881863000000M1503240650499839593000M1503240651290385015000M1503240651681195610000M15032406'
p960
ssS'15'
p961
(dp962
g7
S'0000001000000000000000000000110000010000000000000000000000000000'
p963
sS'DE024'
p964
S'640'
p965
sS'DE050'
p966
S'840'
p967
sg21
S'1000000000000000000000010000000000000000000000010100000000000000'
p968
sg23
S'1644'
p969
sS'DE071'
p970
S'00000012'
p971
sS'DE094'
p972
S'001662'
p973
sS'DE100'
p974
S'003869'
p975
sS'DE093'
p976
S'003869'
p977
sS'PDS0164'
p978
S'69081364480000M1503240669464370000000M1503240670291378800000M1503240670452152500000M1503240670677075000000M1503240671081190265000M1503240672892950000000M1503240674881195850000M1503240675298656950000M1503240675690981050000M15032406'
p979
ssS'14'
p980
(dp981
g7
S'0000001000000000000000000000110000010000000000000000000000000000'
p982
sS'DE024'
p983
S'640'
p984
sS'DE050'
p985
S'840'
p986
sg21
S'1000000000000000000000010000000000000000000000010100000000000000'
p987
sg23
S'1644'
p988
sS'DE071'
p989
S'00000011'
p990
sS'DE094'
p991
S'001662'
p992
sS'DE100'
p993
S'003869'
p994
sS'DE093'
p995
S'003869'
p996
sS'PDS0164'
p997
S'59892657097000M1503240660064815060000M1503240660493078500000M1503240660884473500000M1503240663493641400000M1503240664385987675000M1503240664676905000000M1503240665490649562000M1503240667852249800000M1503240668293750350000M15032406'
p998
ssS'17'
p999
(dp1000
g7
S'0000001000000000000000000000110000010000000000000000000000000000'
p1001
sS'DE024'
p1002
S'640'
p1003
sS'DE050'
p1004
S'840'
p1005
sg21
S'1000000000000000000000010000000000000000000000010100000000000000'
p1006
sg23
S'1644'
p1007
sS'DE071'
p1008
S'00000014'
p1009
sS'DE094'
p1010
S'001662'
p1011
sS'DE100'
p1012
S'003869'
p1013
sS'DE093'
p1014
S'003869'
p1015
sS'PDS0164'
p1016
S'84091000000000M1503240685882552500000M1503240686062478230000M1503240688292497380000M1503240688672148900000M1503240690183128300000M1503240693493499000000M1503240693693638700000M1503240693781200000000M1503240694171103350000M15032406'
p1017
ssS'16'
p1018
(dp1019
g7
S'0000001000000000000000000000110000010000000000000000000000000000'
p1020
sS'DE024'
p1021
S'640'
p1022
sS'DE050'
p1023
S'840'
p1024
sg21
S'1000000000000000000000010000000000000000000000010100000000000000'
p1025
sg23
S'1644'
p1026
sS'DE071'
p1027
S'00000013'
p1028
sS'DE094'
p1029
S'001662'
p1030
sS'DE100'
p1031
S'003869'
p1032
sS'DE093'
p1033
S'003869'
p1034
sS'PDS0164'
p1035
S'76483253690000M1503240677691986080000M1503240678096338550000M1503240678493672950000M1503240678891918700000M1503240680062960000000M1503240680785724790000M1503240681897630050000M1503240682690668740000M1503240683461843000000M15032406'
p1036
ssS'19'
p1037
(dp1038
g7
S'0000001000000000000000000000110000010000000000000000000000000000'
p1039
sS'DE024'
p1040
S'640'
p1041
sS'DE050'
p1042
S'840'
p1043
sg21
S'1000000000000000000000010000000000000000000000010100000000000000'
p1044
sg23
S'1644'
p1045
sS'DE071'
p1046
S'00000016'
p1047
sS'DE094'
p1048
S'001662'
p1049
sS'DE100'
p1050
S'003869'
p1051
sS'DE093'
p1052
S'003869'
p1053
sS'PDS0164'
p1054
S'96962987000000M1503240697185770000000M1503240697295700900000M1503240697371073950000M1503240697451468000000M1503240697591796000000M1503240697679210000000M1503240697791792366000M1503240697890913784000M1503240698082265000000M15032406'
p1055
ssS'18'
p1056
(dp1057
g7
S'0000001000000000000000000000110000010000000000000000000000000000'
p1058
sS'DE024'
p1059
S'640'
p1060
sS'DE050'
p1061
S'840'
p1062
sg21
S'1000000000000000000000010000000000000000000000010100000000000000'
p1063
sg23
S'1644'
p1064
sS'DE071'
p1065
S'00000015'
p1066
sS'DE094'
p1067
S'001662'
p1068
sS'DE100'
p1069
S'003869'
p1070
sS'DE093'
p1071
S'003869'
p1072
sS'PDS0164'
p1073
S'94383515000000M1503240694491048600000M1503240694694057400000M1503240694992572200000M1503240695076061200000M1503240695192702550000M1503240695276075000000M1503240695371095900000M1503240696797735000000M1503240696893272000000M15032406'
p1074
ssS'31'
p1075
(dp1076
g7
S'0000001000000000000000000000110000010000000000000000000000000000'
p1077
sS'DE024'
p1078
S'640'
p1079
sS'DE050'
p1080
S'840'
p1081
sg21
S'1000000000000000000000010000000000000000000000010100000000000000'
p1082
sg23
S'1644'
p1083
sS'DE071'
p1084
S'00000028'
p1085
sS'DE094'
p1086
S'001662'
p1087
sS'DE100'
p1088
S'003869'
p1089
sS'DE093'
p1090
S'003869'
p1091
sS'PDS0164'
p1092
S'69081339250000B1503240669464320000000B1503240670291378600000B1503240670452149000000B1503240670677040000000B1503240671081189890000B1503240672892937700000B1503240674881193300000B1503240675298655200000B1503240675690980900000B15032406'
p1093
ssS'30'
p1094
(dp1095
g7
S'0000001000000000000000000000110000010000000000000000000000000000'
p1096
sS'DE024'
p1097
S'640'
p1098
sS'DE050'
p1099
S'840'
p1100
sg21
S'1000000000000000000000010000000000000000000000010100000000000000'
p1101
sg23
S'1644'
p1102
sS'DE071'
p1103
S'00000027'
p1104
sS'DE094'
p1105
S'001662'
p1106
sS'DE100'
p1107
S'003869'
p1108
sS'DE093'
p1109
S'003869'
p1110
sS'PDS0164'
p1111
S'59892604167000B1503240660064810470000B1503240660493078000000B1503240660884471000000B1503240663493641200000B1503240664385987050000B1503240664676850000000B1503240665490649140000B1503240667852181900000B1503240668293750200000B15032406'
p1112
ssS'37'
p1113
(dp1114
g7
S'0000001000000000000000000000110000010000000000000000000000000000'
p1115
sS'DE024'
p1116
S'640'
p1117
sS'DE050'
p1118
S'840'
p1119
sg21
S'1000000000000000000000010000000000000000000000010100000000000000'
p1120
sg23
S'1644'
p1121
sS'DE071'
p1122
S'00000034'
p1123
sS'DE094'
p1124
S'001662'
p1125
sS'DE100'
p1126
S'003869'
p1127
sS'DE093'
p1128
S'003869'
p1129
sS'PDS0164'
p1130
S'00871291300000S1503240601289631640000S1503240603298800000000S1503240603691288494000S1503240604491000000000S1503240604890377030000S1503240605087803000000S1503240605174777100000S1503240605292027680000S1503240606091000000000S15032406'
p1131
ssS'36'
p1132
(dp1133
g7
S'0000001000000000000000000000110000010000000000000000000000000000'
p1134
sS'DE024'
p1135
S'640'
p1136
sS'DE050'
p1137
S'840'
p1138
sg21
S'1000000000000000000000010000000000000000000000010100000000000000'
p1139
sg23
S'1644'
p1140
sS'DE071'
p1141
S'00000033'
p1142
sS'DE094'
p1143
S'001662'
p1144
sS'DE100'
p1145
S'003869'
p1146
sS'DE093'
p1147
S'003869'
p1148
sS'PDS0164'
p1149
S'98192212000000B1503240698593840600000B1503240698693177400000B1503240699671893901380B15032406'
p1150
ssS'35'
p1151
(dp1152
g7
S'0000001000000000000000000000110000010000000000000000000000000000'
p1153
sS'DE024'
p1154
S'640'
p1155
sS'DE050'
p1156
S'840'
p1157
sg21
S'1000000000000000000000010000000000000000000000010100000000000000'
p1158
sg23
S'1644'
p1159
sS'DE071'
p1160
S'00000032'
p1161
sS'DE094'
p1162
S'001662'
p1163
sS'DE100'
p1164
S'003869'
p1165
sS'DE093'
p1166
S'003869'
p1167
sS'PDS0164'
p1168
S'96962977000000B1503240697185770000000B1503240697295700900000B1503240697371068950000B1503240697451468000000B1503240697591795800000B1503240697679160000000B1503240697791787885000B1503240697890913659000B1503240698082250000000B15032406'
p1169
ssS'34'
p1170
(dp1171
g7
S'0000001000000000000000000000110000010000000000000000000000000000'
p1172
sS'DE024'
p1173
S'640'
p1174
sS'DE050'
p1175
S'840'
p1176
sg21
S'1000000000000000000000010000000000000000000000010100000000000000'
p1177
sg23
S'1644'
p1178
sS'DE071'
p1179
S'00000031'
p1180
sS'DE094'
p1181
S'001662'
p1182
sS'DE100'
p1183
S'003869'
p1184
sS'DE093'
p1185
S'003869'
p1186
sS'PDS0164'
p1187
S'94383480000000B1503240694491048600000B1503240694694054400000B1503240694992569900000B1503240695076041200000B1503240695192688200000B1503240695276040000000B1503240695371091400000B1503240696797725000000B1503240696893247000000B15032406'
p1188
ssS'33'
p1189
(dp1190
g7
S'0000001000000000000000000000110000010000000000000000000000000000'
p1191
sS'DE024'
p1192
S'640'
p1193
sS'DE050'
p1194
S'840'
p1195
sg21
S'1000000000000000000000010000000000000000000000010100000000000000'
p1196
sg23
S'1644'
p1197
sS'DE071'
p1198
S'00000030'
p1199
sS'DE094'
p1200
S'001662'
p1201
sS'DE100'
p1202
S'003869'
p1203
sS'DE093'
p1204
S'003869'
p1205
sS'PDS0164'
p1206
S'84091000000000B1503240685882550000000B1503240686062478230000B1503240688292444390000B1503240688672148700000B1503240690183128000000B1503240693493349000000B1503240693693636900000B1503240693781200000000B1503240694171102400000B15032406'
p1207
ssS'55'
p1208
(dp1209
S'PDS0159'
p1210
S'3869       4631231770                  1US00000001N1503240515032401'
p1211
sS'DE049'
p1212
S'156'
p1213
sS'DE071'
p1214
S'00000052'
p1215
sS'PDS0191'
p1216
g46
sS'DE094'
p1217
S'001867'
p1218
sS'DE023'
p1219
S'000'
p1220
sS'DE093'
p1221
S'003869'
p1222
sS'DE100'
p1223
S'003869'
p1224
sS'DE033'
p1225
S'001867'
p1226
sS'DE031'
p1227
S'55418675083030302816745'
p1228
sS'DE010'
p1229
S'51924854'
p1230
sS'DE012'
p1231
S'150317171118'
p1232
sS'DE051'
p1233
S'392'
p1234
sS'DE050'
p1235
S'840'
p1236
sS'PDS0158'
p1237
S'MCC20400016115032405    NNNNNN'
p1238
sS'DE038'
p1239
S'261378'
p1240
sS'PDS0177'
p1241
S'YY'
p1242
sg23
S'1240'
p1243
sS'DE111'
p1244
S'012000000000'
p1245
sS'PDS0146'
p1246
S'002901840000000000495840000000000495'
p1247
sS'DE006'
p1248
S'000000032019'
p1249
sS'PDS0023'
p1250
S'POI'
p1251
sS'DE004'
p1252
S'000000166345'
p1253
sS'DE005'
p1254
S'000000026825'
p1255
sS'DE002'
p1256
S'5442999999999999'
p1257
sS'DE003'
p1258
S'000000'
p1259
sg7
S'0000001000000000000000000000110000010000000000100000000000000000'
p1260
sS'DE024'
p1261
S'200'
p1262
sS'DE025'
p1263
S'1400'
p1264
sS'DE026'
p1265
S'5411'
p1266
sS'DE041'
p1267
S'31514627'
p1268
sS'PDS0148'
p1269
S'156284023920'
p1270
sS'DE022'
p1271
S'D00301199000'
p1272
sS'DE009'
p1273
S'71612612'
p1274
sg21
S'1111110011010000000001111100001010000100111000011110000000000010'
p1275
sS'DE042'
p1276
S'0303905602     '
p1277
sS'DE063'
p1278
S' MCBK6UD6A0317  '
p1279
sS'DE043'
p1280
S'ALIPAY*TAOBAO.COM\\MIN SHENG LU 1199 NONG ZHENG DA WU DAO K\\SHANGHAI\\200135    SHACHN'
p1281
sS'PDS0002'
p1282
S'MCB'
p1283
sS'PDS0003'
p1284
S'MCB'
p1285
sS'PDS0165'
p1286
g117
ssS'32'
p1287
(dp1288
g7
S'0000001000000000000000000000110000010000000000000000000000000000'
p1289
sS'DE024'
p1290
S'640'
p1291
sS'DE050'
p1292
S'840'
p1293
sg21
S'1000000000000000000000010000000000000000000000010100000000000000'
p1294
sg23
S'1644'
p1295
sS'DE071'
p1296
S'00000029'
p1297
sS'DE094'
p1298
S'001662'
p1299
sS'DE100'
p1300
S'003869'
p1301
sS'DE093'
p1302
S'003869'
p1303
sS'PDS0164'
p1304
S'76483233950000B1503240677691904762000B1503240678096314000000B1503240678493672900000B1503240678891918700000B1503240680062955000000B1503240680785724790000B1503240681897630000000B1503240682690668673000B1503240683461838000000B15032406'
p1305
ssS'57'
p1306
(dp1307
S'PDS0390'
p1308
S'D0000000000028002'
p1309
sS'PDS0391'
p1310
S'C0000000000000000'
p1311
sS'PDS0392'
p1312
S'00D000000000000000'
p1313
sS'PDS0393'
p1314
S'00C000000000000510'
p1315
sS'PDS0394'
p1316
S'D0000000000028002'
p1317
sS'PDS0395'
p1318
S'C000000000000510'
p1319
sS'PDS0396'
p1320
S'D0000000000027492'
p1321
sS'DE071'
p1322
S'00000054'
p1323
sS'DE093'
p1324
S'003869'
p1325
sS'DE100'
p1326
S'003869'
p1327
sS'PDS0302'
p1328
S'I'
p1329
sS'PDS0300'
p1330
S'0011503240000000386905601'
p1331
sS'DE050'
p1332
S'840'
p1333
sS'PDS0400'
p1334
S'0000000003'
p1335
sS'PDS0401'
p1336
S'0000000000'
p1337
sS'PDS0402'
p1338
S'0000000003'
p1339
sg23
S'1644'
p1340
sS'PDS0374'
p1341
S'00'
p1342
sS'PDS0372'
p1343
S'1240200'
p1344
sg7
S'0000001000000000000000000000100000010000000000000000000000000000'
p1345
sS'DE024'
p1346
S'685'
p1347
sS'DE025'
p1348
S'6862'
p1349
sS'PDS0148'
p1350
S'8402'
p1351
sS'PDS0378'
p1352
S'O'
p1353
sg21
S'1000000000000000000000011000000000000000000000010100000000000000'
p1354
sS'PDS0165'
p1355
g117
ssS'50'
p1356
(dp1357
g7
S'0000001000000000000000000000110000010000000000000000000000000000'
p1358
sS'DE024'
p1359
S'640'
p1360
sS'DE050'
p1361
S'840'
p1362
sg21
S'1000000000000000000000010000000000000000000000010100000000000000'
p1363
sg23
S'1644'
p1364
sS'DE071'
p1365
S'00000047'
p1366
sS'DE094'
p1367
S'001662'
p1368
sS'DE100'
p1369
S'003869'
p1370
sS'DE093'
p1371
S'003869'
p1372
sS'PDS0164'
p1373
S'94383550000000S1503240694491048600000S1503240694694060400000S1503240694992574500000S1503240695076081200000S1503240695192716900000S1503240695276110000000S1503240695371100400000S1503240696797745000000S1503240696893297000000S15032406'
p1374
ss.