(dp0
S'56'
p1
(dp2
S'DE048'
p3
(dp4
S'PDS0300'
p5
S'0011503240000000386905601'
p6
sS'PDS0381'
p7
S'C0000000000000000'
p8
sS'PDS0380'
p9
S'D0000000000173645'
p10
sS'PDS0148'
p11
S'1562'
p12
sS'PDS0384'
p13
S'D0000000000173645'
p14
sS'PDS0400'
p15
S'0000000003'
p16
sS'PDS0401'
p17
S'0000000000'
p18
sS'PDS0402'
p19
S'0000000003'
p20
ssS'DE049'
p21
S'156'
p22
sS'DE001'
p23
S'0000001000000000000000000000100000010000000000000000000000000000'
p24
sS'DE024'
p25
S'680'
p26
sS'DE025'
p27
S'6862'
p28
sS'bitmap_primary'
p29
S'1000000000000000000000011000000000000000000000011000000000000000'
p30
sS'MTI'
p31
S'1644'
p32
sS'DE071'
p33
S'00000053'
p34
sS'DE093'
p35
S'003869'
p36
sS'DE100'
p37
S'003869'
p38
ssS'54'
p39
(dp40
S'DE049'
p41
S'156'
p42
sS'DE071'
p43
S'00000051'
p44
sS'DE094'
p45
S'001867'
p46
sS'DE023'
p47
S'000'
p48
sS'DE093'
p49
S'003869'
p50
sS'DE100'
p51
S'003869'
p52
sS'DE033'
p53
S'001867'
p54
sS'DE031'
p55
S'55418675083030300156037'
p56
sS'DE010'
p57
S'51927083'
p58
sS'DE012'
p59
S'150316000000'
p60
sS'DE051'
p61
S'392'
p62
sS'DE050'
p63
S'840'
p64
sS'DE038'
p65
S'623601'
p66
sS'DE048'
p67
(dp68
S'PDS0023'
p69
S'POI'
p70
sS'PDS0146'
p71
S'002901840000000000010840000000000010'
p72
sS'PDS0158'
p73
S'MCC20400018515032405    NNNNNN'
p74
sS'PDS0159'
p75
S'3869       4631231770                  1US00000001N1503240515032401'
p76
sS'PDS0148'
p77
S'156284023920'
p78
sS'PDS0191'
p79
S'2'
p80
sS'PDS0002'
p81
S'MCS'
p82
sS'PDS0003'
p83
S'MCS'
p84
sS'PDS0165'
p85
S'M'
p86
sS'PDS0177'
p87
S'YY'
p88
ssg31
S'1240'
p89
sS'DE111'
p90
S'012000000000'
p91
sS'DE006'
p92
S'000000000925'
p93
sS'DE004'
p94
S'000000004800'
p95
sS'DE005'
p96
S'000000000774'
p97
sS'DE002'
p98
S'5442999999999999'
p99
sS'DE003'
p100
S'000000'
p101
sg23
S'0000001000000000000000000000110000010000000000100000000000000000'
p102
sS'DE024'
p103
S'200'
p104
sS'DE025'
p105
S'1400'
p106
sS'DE026'
p107
S'5311'
p108
sS'DE022'
p109
S'D00301C99300'
p110
sS'DE009'
p111
S'71612500'
p112
sg29
S'1111110011010000000001111100001010000101011000011110000000000010'
p113
sS'DE042'
p114
S'0303404871     '
p115
sS'DE063'
p116
S' MCSJQC16A0316  '
p117
sS'DE043'
p118
S'XIANGXUEHAI INTERNATIO\\NO1,Fuxingmen NeiDajie,Beijing,China\\SHANGHAI\\100818       CHN'
p119
sS'DE040'
p120
S'201'
p121
ssS'42'
p122
(dp123
S'DE048'
p124
(dp125
S'PDS0164'
p126
S'35686224500000S1503240636051302500000S1503240636861166000000S1503240637693980800000S1503240638871151893000S1503240639271196000000S1503240639871860400000S1503240640090708900000S1503240640489205000000S1503240641061108230000S15032406'
p127
ssg23
S'0000001000000000000000000000110000010000000000000000000000000000'
p128
sS'DE024'
p129
S'640'
p130
sS'DE050'
p131
S'840'
p132
sg29
S'1000000000000000000000010000000000000000000000010100000000000000'
p133
sg31
S'1644'
p134
sS'DE071'
p135
S'00000039'
p136
sS'DE094'
p137
S'001662'
p138
sS'DE093'
p139
S'003869'
p140
sS'DE100'
p141
S'003869'
p142
ssS'48'
p143
(dp144
S'DE048'
p145
(dp146
S'PDS0164'
p147
S'76483273430000S1503240677692067397000S1503240678096363100000S1503240678493673000000S1503240678891918700000S1503240680062965000000S1503240680785724790000S1503240681897630100000S1503240682690668807000S1503240683461848000000S15032406'
p148
ssg23
S'0000001000000000000000000000110000010000000000000000000000000000'
p149
sS'DE024'
p150
S'640'
p151
sS'DE050'
p152
S'840'
p153
sg29
S'1000000000000000000000010000000000000000000000010100000000000000'
p154
sg31
S'1644'
p155
sS'DE071'
p156
S'00000045'
p157
sS'DE094'
p158
S'001662'
p159
sS'DE093'
p160
S'003869'
p161
sS'DE100'
p162
S'003869'
p163
ssS'43'
p164
(dp165
S'DE048'
p166
(dp167
S'PDS0164'
p168
S'41490300100000S1503240641786231250000S1503240641868140000000S1503240642261514000000S1503240642681198600000S1503240643088500000000S1503240643491400000000S1503240644092854200000S1503240644697988680000S1503240645474468500000S15032406'
p169
ssg23
S'0000001000000000000000000000110000010000000000000000000000000000'
p170
sS'DE024'
p171
S'640'
p172
sS'DE050'
p173
S'840'
p174
sg29
S'1000000000000000000000010000000000000000000000010100000000000000'
p175
sg31
S'1644'
p176
sS'DE071'
p177
S'00000040'
p178
sS'DE094'
p179
S'001662'
p180
sS'DE093'
p181
S'003869'
p182
sS'DE100'
p183
S'003869'
p184
ssS'49'
p185
(dp186
S'DE048'
p187
(dp188
S'PDS0164'
p189
S'84091000000000S1503240685882555000000S1503240686062478230000S1503240688292550370000S1503240688672149100000S1503240690183128600000S1503240693493649000000S1503240693693640500000S1503240693781200000000S1503240694171104300000S15032406'
p190
ssg23
S'0000001000000000000000000000110000010000000000000000000000000000'
p191
sS'DE024'
p192
S'640'
p193
sS'DE050'
p194
S'840'
p195
sg29
S'1000000000000000000000010000000000000000000000010100000000000000'
p196
sg31
S'1644'
p197
sS'DE071'
p198
S'00000046'
p199
sS'DE094'
p200
S'001662'
p201
sS'DE093'
p202
S'003869'
p203
sS'DE100'
p204
S'003869'
p205
ssS'52'
p206
(dp207
S'DE048'
p208
(dp209
S'PDS0164'
p210
S'98192243600000S1503240698593843100000S1503240698693178000000S1503240699671893901380S15032406'
p211
ssg23
S'0000001000000000000000000000110000010000000000000000000000000000'
p212
sS'DE024'
p213
S'640'
p214
sS'DE050'
p215
S'840'
p216
sg29
S'1000000000000000000000010000000000000000000000010100000000000000'
p217
sg31
S'1644'
p218
sS'DE071'
p219
S'00000049'
p220
sS'DE094'
p221
S'001662'
p222
sS'DE093'
p223
S'003869'
p224
sS'DE100'
p225
S'003869'
p226
ssS'53'
p227
(dp228
S'DE049'
p229
S'156'
p230
sS'DE071'
p231
S'00000050'
p232
sS'DE094'
p233
S'001867'
p234
sS'DE023'
p235
S'000'
p236
sS'DE093'
p237
S'003869'
p238
sS'DE100'
p239
S'003869'
p240
sS'DE033'
p241
S'001867'
p242
sS'DE031'
p243
S'55418675083030300156029'
p244
sS'DE010'
p245
S'51924000'
p246
sS'DE012'
p247
S'150316000000'
p248
sS'DE051'
p249
S'392'
p250
sS'DE050'
p251
S'840'
p252
sS'DE038'
p253
S'647616'
p254
sS'DE048'
p255
(dp256
S'PDS0023'
p257
S'POI'
p258
sS'PDS0146'
p259
S'002901840000000000005840000000000005'
p260
sS'PDS0158'
p261
S'MCC20400018515032405    NNNNNN'
p262
sS'PDS0159'
p263
S'3869       4631231770                  1US00000001N1503240515032401'
p264
sS'PDS0148'
p265
S'156284023920'
p266
sS'PDS0191'
p267
g80
sS'PDS0002'
p268
S'MCS'
p269
sS'PDS0003'
p270
S'MCS'
p271
sS'PDS0165'
p272
g86
sS'PDS0177'
p273
S'YY'
p274
ssg31
S'1240'
p275
sS'DE111'
p276
S'012000000000'
p277
sS'DE006'
p278
S'000000000481'
p279
sS'DE004'
p280
S'000000002500'
p281
sS'DE005'
p282
S'000000000403'
p283
sS'DE002'
p284
S'5442999999999999'
p285
sS'DE003'
p286
S'000000'
p287
sg23
S'0000001000000000000000000000110000010000000000100000000000000000'
p288
sS'DE024'
p289
S'200'
p290
sS'DE025'
p291
S'1400'
p292
sS'DE026'
p293
S'5311'
p294
sS'DE022'
p295
S'D00301C99300'
p296
sS'DE009'
p297
S'71612000'
p298
sg29
S'1111110011010000000001111100001010000101011000011110000000000010'
p299
sS'DE042'
p300
S'0303404871     '
p301
sS'DE063'
p302
S' MCSJQVS6A0316  '
p303
sS'DE043'
p304
S'XIANGXUEHAI INTERNATIO\\NO1,Fuxingmen NeiDajie,Beijing,China\\SHANGHAI\\100818       CHN'
p305
sS'DE040'
p306
S'201'
p307
ssS'24'
p308
(dp309
S'DE048'
p310
(dp311
S'PDS0164'
p312
S'19197017100000B1503240619291000000000B1503240620382507300000B1503240620896922000000B1503240621484465000000B1503240622298750000000B1503240623082020000000B1503240623890668673000B1503240624292014099000B1503240626271767500000B15032406'
p313
ssg23
S'0000001000000000000000000000110000010000000000000000000000000000'
p314
sS'DE024'
p315
S'640'
p316
sS'DE050'
p317
S'840'
p318
sg29
S'1000000000000000000000010000000000000000000000010100000000000000'
p319
sg31
S'1644'
p320
sS'DE071'
p321
S'00000021'
p322
sS'DE094'
p323
S'001662'
p324
sS'DE093'
p325
S'003869'
p326
sS'DE100'
p327
S'003869'
p328
ssS'25'
p329
(dp330
S'DE048'
p331
(dp332
S'PDS0164'
p333
S'27084260000000B1503240629290668673000B1503240632097633000000B1503240632467220000000B1503240632872032100000B1503240633284711140000B1503240634082139000000B1503240634497755600000B1503240634872766700000B1503240635271366500000B15032406'
p334
ssg23
S'0000001000000000000000000000110000010000000000000000000000000000'
p335
sS'DE024'
p336
S'640'
p337
sS'DE050'
p338
S'840'
p339
sg29
S'1000000000000000000000010000000000000000000000010100000000000000'
p340
sg31
S'1644'
p341
sS'DE071'
p342
S'00000022'
p343
sS'DE094'
p344
S'001662'
p345
sS'DE093'
p346
S'003869'
p347
sS'DE100'
p348
S'003869'
p349
ssS'26'
p350
(dp351
S'DE048'
p352
(dp353
S'PDS0164'
p354
S'35686221500000B1503240636051301400000B1503240636861164000000B1503240637693974800000B1503240638871147126000B1503240639271195700000B1503240639871859900000B1503240640090708400000B1503240640489185000000B1503240641061106230000B15032406'
p355
ssg23
S'0000001000000000000000000000110000010000000000000000000000000000'
p356
sS'DE024'
p357
S'640'
p358
sS'DE050'
p359
S'840'
p360
sg29
S'1000000000000000000000010000000000000000000000010100000000000000'
p361
sg31
S'1644'
p362
sS'DE071'
p363
S'00000023'
p364
sS'DE094'
p365
S'001662'
p366
sS'DE093'
p367
S'003869'
p368
sS'DE100'
p369
S'003869'
p370
ssS'27'
p371
(dp372
S'DE048'
p373
(dp374
S'PDS0164'
p375
S'41490299100000B1503240641786231250000B1503240641868090000000B1503240642261501000000B1503240642681193500000B1503240643088400000000B1503240643491395000000B1503240644092853600000B1503240644697987650000B1503240645474268500000B15032406'
p376
ssg23
S'0000001000000000000000000000110000010000000000000000000000000000'
p377
sS'DE024'
p378
S'640'
p379
sS'DE050'
p380
S'840'
p381
sg29
S'1000000000000000000000010000000000000000000000010100000000000000'
p382
sg31
S'1644'
p383
sS'DE071'
p384
S'00000024'
p385
sS'DE094'
p386
S'001662'
p387
sS'DE093'
p388
S'003869'
p389
sS'DE100'
p390
S'003869'
p391
ssS'20'
p392
(dp393
S'DE048'
p394
(dp395
S'PDS0164'
p396
S'98192227800000M1503240698593841850000M1503240698693177700000M1503240699671893901380M15032406'
p397
ssg23
S'0000001000000000000000000000110000010000000000000000000000000000'
p398
sS'DE024'
p399
S'640'
p400
sS'DE050'
p401
S'840'
p402
sg29
S'1000000000000000000000010000000000000000000000010100000000000000'
p403
sg31
S'1644'
p404
sS'DE071'
p405
S'00000017'
p406
sS'DE094'
p407
S'001662'
p408
sS'DE093'
p409
S'003869'
p410
sS'DE100'
p411
S'003869'
p412
ssS'21'
p413
(dp414
S'DE048'
p415
(dp416
S'PDS0164'
p417
S'00871288600000B1503240601289579840000B1503240603298795000000B1503240603691287996000B1503240604491000000000B1503240604890377000000B1503240605087778000000B1503240605174777100000B1503240605291990000000B1503240606091000000000B15032406'
p418
ssg23
S'0000001000000000000000000000110000010000000000000000000000000000'
p419
sS'DE024'
p420
S'640'
p421
sS'DE050'
p422
S'840'
p423
sg29
S'1000000000000000000000010000000000000000000000010100000000000000'
p424
sg31
S'1644'
p425
sS'DE071'
p426
S'00000018'
p427
sS'DE094'
p428
S'001662'
p429
sS'DE093'
p430
S'003869'
p431
sS'DE100'
p432
S'003869'
p433
ssS'22'
p434
(dp435
S'DE048'
p436
(dp437
S'PDS0164'
p438
S'06486227000000B1503240606896860000000B1503240607299852217000B1503240608491982500000B1503240609097633588000B1503240609691378600000B1503240610461034000000B1503240610861531100000B1503240611664005000000B1503240612491261200000B15032406'
p439
ssg23
S'0000001000000000000000000000110000010000000000000000000000000000'
p440
sS'DE024'
p441
S'640'
p442
sS'DE050'
p443
S'840'
p444
sg29
S'1000000000000000000000010000000000000000000000010100000000000000'
p445
sg31
S'1644'
p446
sS'DE071'
p447
S'00000019'
p448
sS'DE094'
p449
S'001662'
p450
sS'DE093'
p451
S'003869'
p452
sS'DE100'
p453
S'003869'
p454
ssS'23'
p455
(dp456
S'DE048'
p457
(dp458
S'PDS0164'
p459
S'13271002500000B1503240613690833300000B1503240614471331000000B1503240615276258000000B1503240615696213500000B1503240615796215300000B1503240615896083352000B1503240617062586950000B1503240617474625000000B1503240618875264000000B15032406'
p460
ssg23
S'0000001000000000000000000000110000010000000000000000000000000000'
p461
sS'DE024'
p462
S'640'
p463
sS'DE050'
p464
S'840'
p465
sg29
S'1000000000000000000000010000000000000000000000010100000000000000'
p466
sg31
S'1644'
p467
sS'DE071'
p468
S'00000020'
p469
sS'DE094'
p470
S'001662'
p471
sS'DE093'
p472
S'003869'
p473
sS'DE100'
p474
S'003869'
p475
ssS'46'
p476
(dp477
S'DE048'
p478
(dp479
S'PDS0164'
p480
S'59892710027000S1503240660064819650000S1503240660493079000000S1503240660884476000000S1503240663493641600000S1503240664385988300000S1503240664676960000000S1503240665490649984000S1503240667852317700000S1503240668293750500000S15032406'
p481
ssg23
S'0000001000000000000000000000110000010000000000000000000000000000'
p482
sS'DE024'
p483
S'640'
p484
sS'DE050'
p485
S'840'
p486
sg29
S'1000000000000000000000010000000000000000000000010100000000000000'
p487
sg31
S'1644'
p488
sS'DE071'
p489
S'00000043'
p490
sS'DE094'
p491
S'001662'
p492
sS'DE093'
p493
S'003869'
p494
sS'DE100'
p495
S'003869'
p496
ssS'47'
p497
(dp498
S'DE048'
p499
(dp500
S'PDS0164'
p501
S'69081389710000S1503240669464420000000S1503240670291379000000S1503240670452156000000S1503240670677110000000S1503240671081190640000S1503240672892962300000S1503240674881198400000S1503240675298658700000S1503240675690981200000S15032406'
p502
ssg23
S'0000001000000000000000000000110000010000000000000000000000000000'
p503
sS'DE024'
p504
S'640'
p505
sS'DE050'
p506
S'840'
p507
sg29
S'1000000000000000000000010000000000000000000000010100000000000000'
p508
sg31
S'1644'
p509
sS'DE071'
p510
S'00000044'
p511
sS'DE094'
p512
S'001662'
p513
sS'DE093'
p514
S'003869'
p515
sS'DE100'
p516
S'003869'
p517
ssS'44'
p518
(dp519
S'DE048'
p520
(dp521
S'PDS0164'
p522
S'45893696500000S1503240646281561000000S1503240647873170000000S1503240648083685000000S1503240648481494930000S1503240649661995000000S1503240649881868000000S1503240650499874000000S1503240651290385030000S1503240651681196140000S15032406'
p523
ssg23
S'0000001000000000000000000000110000010000000000000000000000000000'
p524
sS'DE024'
p525
S'640'
p526
sS'DE050'
p527
S'840'
p528
sg29
S'1000000000000000000000010000000000000000000000010100000000000000'
p529
sg31
S'1644'
p530
sS'DE071'
p531
S'00000041'
p532
sS'DE094'
p533
S'001662'
p534
sS'DE093'
p535
S'003869'
p536
sS'DE100'
p537
S'003869'
p538
ssS'45'
p539
(dp540
S'DE048'
p541
(dp542
S'PDS0164'
p543
S'52471001400000S1503240653291790000000S1503240653391790000000S1503240654871060000000S1503240655491309072000S1503240655882625000000S1503240656671997500000S1503240657898072200000S1503240658671019000000S1503240659091000000000S15032406'
p544
ssg23
S'0000001000000000000000000000110000010000000000000000000000000000'
p545
sS'DE024'
p546
S'640'
p547
sS'DE050'
p548
S'840'
p549
sg29
S'1000000000000000000000010000000000000000000000010100000000000000'
p550
sg31
S'1644'
p551
sS'DE071'
p552
S'00000042'
p553
sS'DE094'
p554
S'001662'
p555
sS'DE093'
p556
S'003869'
p557
sS'DE100'
p558
S'003869'
p559
ssS'28'
p560
(dp561
S'DE048'
p562
(dp563
S'PDS0164'
p564
S'45893695500000B1503240646281527000000B1503240647873120000000B1503240648083655000000B1503240648481494430000B1503240649661984000000B1503240649881858000000B1503240650499805185000B1503240651290385000000B1503240651681195080000B15032406'
p565
ssg23
S'0000001000000000000000000000110000010000000000000000000000000000'
p566
sS'DE024'
p567
S'640'
p568
sS'DE050'
p569
S'840'
p570
sg29
S'1000000000000000000000010000000000000000000000010100000000000000'
p571
sg31
S'1644'
p572
sS'DE071'
p573
S'00000025'
p574
sS'DE094'
p575
S'001662'
p576
sS'DE093'
p577
S'003869'
p578
sS'DE100'
p579
S'003869'
p580
ssS'29'
p581
(dp582
S'DE048'
p583
(dp584
S'PDS0164'
p585
S'52489914000000B1503240653291790000000B1503240653391790000000B1503240654871040000000B1503240655491308387000B1503240655882625000000B1503240656671996500000B1503240657898068700000B1503240658671017900000B1503240659091000000000B15032406'
p586
ssg23
S'0000001000000000000000000000110000010000000000000000000000000000'
p587
sS'DE024'
p588
S'640'
p589
sS'DE050'
p590
S'840'
p591
sg29
S'1000000000000000000000010000000000000000000000010100000000000000'
p592
sg31
S'1644'
p593
sS'DE071'
p594
S'00000026'
p595
sS'DE094'
p596
S'001662'
p597
sS'DE093'
p598
S'003869'
p599
sS'DE100'
p600
S'003869'
p601
ssS'40'
p602
(dp603
S'DE048'
p604
(dp605
S'PDS0164'
p606
S'19197023300000S1503240619291000000000S1503240620382512600000S1503240620896923500000S1503240621484475000000S1503240622298750000000S1503240623082080000000S1503240623890668807000S1503240624292055498000S1503240626271767500000S15032406'
p607
ssg23
S'0000001000000000000000000000110000010000000000000000000000000000'
p608
sS'DE024'
p609
S'640'
p610
sS'DE050'
p611
S'840'
p612
sg29
S'1000000000000000000000010000000000000000000000010100000000000000'
p613
sg31
S'1644'
p614
sS'DE071'
p615
S'00000037'
p616
sS'DE094'
p617
S'001662'
p618
sS'DE093'
p619
S'003869'
p620
sS'DE100'
p621
S'003869'
p622
ssS'41'
p623
(dp624
S'DE048'
p625
(dp626
S'PDS0164'
p627
S'27084360000000S1503240629290668807000S1503240632097636000000S1503240632467420000000S1503240632872092100000S1503240633284745240000S1503240634082139000000S1503240634497756100000S1503240634872769200000S1503240635271373100000S15032406'
p628
ssg23
S'0000001000000000000000000000110000010000000000000000000000000000'
p629
sS'DE024'
p630
S'640'
p631
sS'DE050'
p632
S'840'
p633
sg29
S'1000000000000000000000010000000000000000000000010100000000000000'
p634
sg31
S'1644'
p635
sS'DE071'
p636
S'00000038'
p637
sS'DE094'
p638
S'001662'
p639
sS'DE093'
p640
S'003869'
p641
sS'DE100'
p642
S'003869'
p643
ssS'1'
p644
(dp645
S'DE048'
p646
(dp647
S'PDS0105'
p648
S'0011503240000000386999601'
p649
sS'PDS0122'
p650
S'T'
p651
ssg23
S'0000001000000000000000000000000000000000000000000000000000000000'
p652
sS'DE024'
p653
S'697'
p654
sg29
S'1000000000000000000000010000000000000000000000010000000000000000'
p655
sg31
S'1644'
p656
sS'DE071'
p657
S'00000001'
p658
ssS'3'
p659
(dp660
S'DE049'
p661
S'156'
p662
sS'DE071'
p663
S'00000050'
p664
sS'DE094'
p665
S'001867'
p666
sS'DE023'
p667
S'000'
p668
sS'DE093'
p669
S'003869'
p670
sS'DE100'
p671
S'003869'
p672
sS'DE033'
p673
S'001867'
p674
sS'DE031'
p675
S'55418675083030300156029'
p676
sS'DE010'
p677
S'51924000'
p678
sS'DE012'
p679
S'150316000000'
p680
sS'DE051'
p681
S'392'
p682
sS'DE050'
p683
S'840'
p684
sS'DE038'
p685
S'647616'
p686
sS'DE048'
p687
(dp688
S'PDS0023'
p689
S'POI'
p690
sS'PDS0146'
p691
S'002901840000000000005840000000000005'
p692
sS'PDS0158'
p693
S'MCC20400018515032405    NNNNNN'
p694
sS'PDS0159'
p695
S'3869       4631231770                  1US00000001N1503240515032401'
p696
sS'PDS0148'
p697
S'156284023920'
p698
sS'PDS0191'
p699
g80
sS'PDS0002'
p700
S'MCS'
p701
sS'PDS0003'
p702
S'MCS'
p703
sS'PDS0165'
p704
g86
sS'PDS0177'
p705
S'YY'
p706
ssg31
S'1240'
p707
sS'DE111'
p708
S'012000000000'
p709
sS'DE006'
p710
S'000000000481'
p711
sS'DE004'
p712
S'000000002500'
p713
sS'DE005'
p714
S'000000000403'
p715
sS'DE002'
p716
S'5442999999999999'
p717
sS'DE003'
p718
S'000000'
p719
sg23
S'0000001000000000000000000000110000010000000000100000000000000000'
p720
sS'DE024'
p721
S'200'
p722
sS'DE025'
p723
S'1400'
p724
sS'DE026'
p725
S'5311'
p726
sS'DE022'
p727
S'D00301C99300'
p728
sS'DE009'
p729
S'71612000'
p730
sg29
S'1111110011010000000001111100001010000101011000011110000000000010'
p731
sS'DE042'
p732
S'0303404871     '
p733
sS'DE063'
p734
S' MCSJQVS6A0316  '
p735
sS'DE043'
p736
S'XIANGXUEHAI INTERNATIO\\NO1,Fuxingmen NeiDajie,Beijing,China\\SHANGHAI\\100818       CHN'
p737
sS'DE040'
p738
S'201'
p739
ssg80
(dp740
S'DE048'
p741
(dp742
S'PDS0164'
p743
S'19197020200000M1503240619291000000000M1503240620382509950000M1503240620896922750000M1503240621484470000000M1503240622298750000000M1503240623082050000000M1503240623890668740000M1503240624292034799000M1503240626271767500000M15032406'
p744
ssg23
S'0000001000000000000000000000110000010000000000000000000000000000'
p745
sS'DE024'
p746
S'640'
p747
sS'DE050'
p748
S'840'
p749
sg29
S'1000000000000000000000010000000000000000000000010100000000000000'
p750
sg31
S'1644'
p751
sS'DE071'
p752
S'00000005'
p753
sS'DE094'
p754
S'001662'
p755
sS'DE093'
p756
S'003869'
p757
sS'DE100'
p758
S'003869'
p759
ssS'5'
p760
(dp761
S'DE048'
p762
(dp763
S'PDS0164'
p764
S'00871289950000M1503240601289605740000M1503240603298797500000M1503240603691288245000M1503240604491000000000M1503240604890377015000M1503240605087790500000M1503240605174777100000M1503240605292008840000M1503240606091000000000M15032406'
p765
ssg23
S'0000001000000000000000000000110000010000000000000000000000000000'
p766
sS'DE024'
p767
S'640'
p768
sS'DE050'
p769
S'840'
p770
sg29
S'1000000000000000000000010000000000000000000000010100000000000000'
p771
sg31
S'1644'
p772
sS'DE071'
p773
S'00000002'
p774
sS'DE094'
p775
S'001662'
p776
sS'DE093'
p777
S'003869'
p778
sS'DE100'
p779
S'003869'
p780
ssS'4'
p781
(dp782
S'DE048'
p783
(dp784
S'PDS0105'
p785
S'0011503240000000386999601'
p786
sS'PDS0122'
p787
g651
ssg23
S'0000001000000000000000000000000000000000000000000000000000000000'
p788
sS'DE024'
p789
S'697'
p790
sg29
S'1000000000000000000000010000000000000000000000010000000000000000'
p791
sg31
S'1644'
p792
sS'DE071'
p793
S'00000001'
p794
ssS'7'
p795
(dp796
S'DE048'
p797
(dp798
S'PDS0164'
p799
S'13271005000000M1503240613690833300000M1503240614471333000000M1503240615276262000000M1503240615696213500000M1503240615796216050000M1503240615896083352000M1503240617062587705000M1503240617474630000000M1503240618875339000000M15032406'
p800
ssg23
S'0000001000000000000000000000110000010000000000000000000000000000'
p801
sS'DE024'
p802
S'640'
p803
sS'DE050'
p804
S'840'
p805
sg29
S'1000000000000000000000010000000000000000000000010100000000000000'
p806
sg31
S'1644'
p807
sS'DE071'
p808
S'00000004'
p809
sS'DE094'
p810
S'001662'
p811
sS'DE093'
p812
S'003869'
p813
sS'DE100'
p814
S'003869'
p815
ssS'6'
p816
(dp817
S'DE048'
p818
(dp819
S'PDS0164'
p820
S'06486227500000M1503240606896910000000M1503240607299866820000M1503240608492000000000M1503240609097723044000M1503240609691378800000M1503240610461035000000M1503240610861556100000M1503240611664010000000M1503240612491261350000M15032406'
p821
ssg23
S'0000001000000000000000000000110000010000000000000000000000000000'
p822
sS'DE024'
p823
S'640'
p824
sS'DE050'
p825
S'840'
p826
sg29
S'1000000000000000000000010000000000000000000000010100000000000000'
p827
sg31
S'1644'
p828
sS'DE071'
p829
S'00000003'
p830
sS'DE094'
p831
S'001662'
p832
sS'DE093'
p833
S'003869'
p834
sS'DE100'
p835
S'003869'
p836
ssS'9'
p837
(dp838
S'DE048'
p839
(dp840
S'PDS0164'
p841
S'27084310000000M1503240629290668740000M1503240632097634500000M1503240632467320000000M1503240632872062100000M1503240633284728190000M1503240634082139000000M1503240634497755850000M1503240634872767950000M1503240635271369800000M15032406'
p842
ssg23
S'0000001000000000000000000000110000010000000000000000000000000000'
p843
sS'DE024'
p844
S'640'
p845
sS'DE050'
p846
S'840'
p847
sg29
S'1000000000000000000000010000000000000000000000010100000000000000'
p848
sg31
S'1644'
p849
sS'DE071'
p850
S'00000006'
p851
sS'DE094'
p852
S'001662'
p853
sS'DE093'
p854
S'003869'
p855
sS'DE100'
p856
S'003869'
p857
ssS'8'
p858
(dp859
S'DE048'
p860
(dp861
S'PDS0164'
p862
S'19197020200000M1503240619291000000000M1503240620382509950000M1503240620896922750000M1503240621484470000000M1503240622298750000000M1503240623082050000000M1503240623890668740000M1503240624292034799000M1503240626271767500000M15032406'
p863
ssg23
S'0000001000000000000000000000110000010000000000000000000000000000'
p864
sS'DE024'
p865
S'640'
p866
sS'DE050'
p867
S'840'
p868
sg29
S'1000000000000000000000010000000000000000000000010100000000000000'
p869
sg31
S'1644'
p870
sS'DE071'
p871
S'00000005'
p872
sS'DE094'
p873
S'001662'
p874
sS'DE093'
p875
S'003869'
p876
sS'DE100'
p877
S'003869'
p878
ssS'51'
p879
(dp880
S'DE048'
p881
(dp882
S'PDS0164'
p883
S'96962997000000S1503240697185770000000S1503240697295700900000S1503240697371078950000S1503240697451468000000S1503240697591796200000S1503240697679260000000S1503240697791796847000S1503240697890913910000S1503240698082280000000S15032406'
p884
ssg23
S'0000001000000000000000000000110000010000000000000000000000000000'
p885
sS'DE024'
p886
S'640'
p887
sS'DE050'
p888
S'840'
p889
sg29
S'1000000000000000000000010000000000000000000000010100000000000000'
p890
sg31
S'1644'
p891
sS'DE071'
p892
S'00000048'
p893
sS'DE094'
p894
S'001662'
p895
sS'DE093'
p896
S'003869'
p897
sS'DE100'
p898
S'003869'
p899
ssS'39'
p900
(dp901
S'DE048'
p902
(dp903
S'PDS0164'
p904
S'13271007500000S1503240613690833300000S1503240614471335000000S1503240615276266000000S1503240615696213500000S1503240615796216800000S1503240615896083352000S1503240617062588460000S1503240617474635000000S1503240618875414000000S15032406'
p905
ssg23
S'0000001000000000000000000000110000010000000000000000000000000000'
p906
sS'DE024'
p907
S'640'
p908
sS'DE050'
p909
S'840'
p910
sg29
S'1000000000000000000000010000000000000000000000010100000000000000'
p911
sg31
S'1644'
p912
sS'DE071'
p913
S'00000036'
p914
sS'DE094'
p915
S'001662'
p916
sS'DE093'
p917
S'003869'
p918
sS'DE100'
p919
S'003869'
p920
ssS'38'
p921
(dp922
S'DE048'
p923
(dp924
S'PDS0164'
p925
S'06486228000000S1503240606896960000000S1503240607299881423000S1503240608492017500000S1503240609097812500000S1503240609691379000000S1503240610461036000000S1503240610861581100000S1503240611664015000000S1503240612491261500000S15032406'
p926
ssg23
S'0000001000000000000000000000110000010000000000000000000000000000'
p927
sS'DE024'
p928
S'640'
p929
sS'DE050'
p930
S'840'
p931
sg29
S'1000000000000000000000010000000000000000000000010100000000000000'
p932
sg31
S'1644'
p933
sS'DE071'
p934
S'00000035'
p935
sS'DE094'
p936
S'001662'
p937
sS'DE093'
p938
S'003869'
p939
sS'DE100'
p940
S'003869'
p941
ssS'58'
p942
(dp943
S'DE048'
p944
(dp945
S'PDS0301'
p946
S'0000000000173645'
p947
sS'PDS0105'
p948
S'0011503240000000386999601'
p949
sS'PDS0306'
p950
S'00000055'
p951
ssg23
S'0000001000000000000000000000000000000000000000000000000000000000'
p952
sS'DE024'
p953
S'695'
p954
sg29
S'1000000000000000000000010000000000000000000000010000000000000000'
p955
sg31
S'1644'
p956
sS'DE071'
p957
S'00000055'
p958
ssS'11'
p959
(dp960
S'DE048'
p961
(dp962
S'PDS0164'
p963
S'41490299600000M1503240641786231250000M1503240641868115000000M1503240642261507500000M1503240642681196050000M1503240643088450000000M1503240643491397500000M1503240644092853900000M1503240644697988165000M1503240645474368500000M15032406'
p964
ssg23
S'0000001000000000000000000000110000010000000000000000000000000000'
p965
sS'DE024'
p966
S'640'
p967
sS'DE050'
p968
S'840'
p969
sg29
S'1000000000000000000000010000000000000000000000010100000000000000'
p970
sg31
S'1644'
p971
sS'DE071'
p972
S'00000008'
p973
sS'DE094'
p974
S'001662'
p975
sS'DE093'
p976
S'003869'
p977
sS'DE100'
p978
S'003869'
p979
ssS'10'
p980
(dp981
S'DE048'
p982
(dp983
S'PDS0164'
p984
S'35686223000000M1503240636051301950000M1503240636861165000000M1503240637693977800000M1503240638871149509500M1503240639271195850000M1503240639871860150000M1503240640090708650000M1503240640489195000000M1503240641061107230000M15032406'
p985
ssg23
S'0000001000000000000000000000110000010000000000000000000000000000'
p986
sS'DE024'
p987
S'640'
p988
sS'DE050'
p989
S'840'
p990
sg29
S'1000000000000000000000010000000000000000000000010100000000000000'
p991
sg31
S'1644'
p992
sS'DE071'
p993
S'00000007'
p994
sS'DE094'
p995
S'001662'
p996
sS'DE093'
p997
S'003869'
p998
sS'DE100'
p999
S'003869'
p1000
ssS'13'
p1001
(dp1002
S'DE048'
p1003
(dp1004
S'PDS0164'
p1005
S'52489964000000M1503240653291790000000M1503240653391790000000M1503240654871050000000M1503240655491308729000M1503240655882625000000M1503240656671997000000M1503240657898070450000M1503240658671018450000M1503240659091000000000M15032406'
p1006
ssg23
S'0000001000000000000000000000110000010000000000000000000000000000'
p1007
sS'DE024'
p1008
S'640'
p1009
sS'DE050'
p1010
S'840'
p1011
sg29
S'1000000000000000000000010000000000000000000000010100000000000000'
p1012
sg31
S'1644'
p1013
sS'DE071'
p1014
S'00000010'
p1015
sS'DE094'
p1016
S'001662'
p1017
sS'DE093'
p1018
S'003869'
p1019
sS'DE100'
p1020
S'003869'
p1021
ssS'12'
p1022
(dp1023
S'DE048'
p1024
(dp1025
S'PDS0164'
p1026
S'45893696000000M1503240646281544000000M1503240647873145000000M1503240648083670000000M1503240648481494680000M1503240649661989500000M1503240649881863000000M1503240650499839593000M1503240651290385015000M1503240651681195610000M15032406'
p1027
ssg23
S'0000001000000000000000000000110000010000000000000000000000000000'
p1028
sS'DE024'
p1029
S'640'
p1030
sS'DE050'
p1031
S'840'
p1032
sg29
S'1000000000000000000000010000000000000000000000010100000000000000'
p1033
sg31
S'1644'
p1034
sS'DE071'
p1035
S'00000009'
p1036
sS'DE094'
p1037
S'001662'
p1038
sS'DE093'
p1039
S'003869'
p1040
sS'DE100'
p1041
S'003869'
p1042
ssS'15'
p1043
(dp1044
S'DE048'
p1045
(dp1046
S'PDS0164'
p1047
S'69081364480000M1503240669464370000000M1503240670291378800000M1503240670452152500000M1503240670677075000000M1503240671081190265000M1503240672892950000000M1503240674881195850000M1503240675298656950000M1503240675690981050000M15032406'
p1048
ssg23
S'0000001000000000000000000000110000010000000000000000000000000000'
p1049
sS'DE024'
p1050
S'640'
p1051
sS'DE050'
p1052
S'840'
p1053
sg29
S'1000000000000000000000010000000000000000000000010100000000000000'
p1054
sg31
S'1644'
p1055
sS'DE071'
p1056
S'00000012'
p1057
sS'DE094'
p1058
S'001662'
p1059
sS'DE093'
p1060
S'003869'
p1061
sS'DE100'
p1062
S'003869'
p1063
ssS'14'
p1064
(dp1065
S'DE048'
p1066
(dp1067
S'PDS0164'
p1068
S'59892657097000M1503240660064815060000M1503240660493078500000M1503240660884473500000M1503240663493641400000M1503240664385987675000M1503240664676905000000M1503240665490649562000M1503240667852249800000M1503240668293750350000M15032406'
p1069
ssg23
S'0000001000000000000000000000110000010000000000000000000000000000'
p1070
sS'DE024'
p1071
S'640'
p1072
sS'DE050'
p1073
S'840'
p1074
sg29
S'1000000000000000000000010000000000000000000000010100000000000000'
p1075
sg31
S'1644'
p1076
sS'DE071'
p1077
S'00000011'
p1078
sS'DE094'
p1079
S'001662'
p1080
sS'DE093'
p1081
S'003869'
p1082
sS'DE100'
p1083
S'003869'
p1084
ssS'17'
p1085
(dp1086
S'DE048'
p1087
(dp1088
S'PDS0164'
p1089
S'84091000000000M1503240685882552500000M1503240686062478230000M1503240688292497380000M1503240688672148900000M1503240690183128300000M1503240693493499000000M1503240693693638700000M1503240693781200000000M1503240694171103350000M15032406'
p1090
ssg23
S'0000001000000000000000000000110000010000000000000000000000000000'
p1091
sS'DE024'
p1092
S'640'
p1093
sS'DE050'
p1094
S'840'
p1095
sg29
S'1000000000000000000000010000000000000000000000010100000000000000'
p1096
sg31
S'1644'
p1097
sS'DE071'
p1098
S'00000014'
p1099
sS'DE094'
p1100
S'001662'
p1101
sS'DE093'
p1102
S'003869'
p1103
sS'DE100'
p1104
S'003869'
p1105
ssS'16'
p1106
(dp1107
S'DE048'
p1108
(dp1109
S'PDS0164'
p1110
S'76483253690000M1503240677691986080000M1503240678096338550000M1503240678493672950000M1503240678891918700000M1503240680062960000000M1503240680785724790000M1503240681897630050000M1503240682690668740000M1503240683461843000000M15032406'
p1111
ssg23
S'0000001000000000000000000000110000010000000000000000000000000000'
p1112
sS'DE024'
p1113
S'640'
p1114
sS'DE050'
p1115
S'840'
p1116
sg29
S'1000000000000000000000010000000000000000000000010100000000000000'
p1117
sg31
S'1644'
p1118
sS'DE071'
p1119
S'00000013'
p1120
sS'DE094'
p1121
S'001662'
p1122
sS'DE093'
p1123
S'003869'
p1124
sS'DE100'
p1125
S'003869'
p1126
ssS'19'
p1127
(dp1128
S'DE048'
p1129
(dp1130
S'PDS0164'
p1131
S'96962987000000M1503240697185770000000M1503240697295700900000M1503240697371073950000M1503240697451468000000M1503240697591796000000M1503240697679210000000M1503240697791792366000M1503240697890913784000M1503240698082265000000M15032406'
p1132
ssg23
S'0000001000000000000000000000110000010000000000000000000000000000'
p1133
sS'DE024'
p1134
S'640'
p1135
sS'DE050'
p1136
S'840'
p1137
sg29
S'1000000000000000000000010000000000000000000000010100000000000000'
p1138
sg31
S'1644'
p1139
sS'DE071'
p1140
S'00000016'
p1141
sS'DE094'
p1142
S'001662'
p1143
sS'DE093'
p1144
S'003869'
p1145
sS'DE100'
p1146
S'003869'
p1147
ssS'18'
p1148
(dp1149
S'DE048'
p1150
(dp1151
S'PDS0164'
p1152
S'94383515000000M1503240694491048600000M1503240694694057400000M1503240694992572200000M1503240695076061200000M1503240695192702550000M1503240695276075000000M1503240695371095900000M1503240696797735000000M1503240696893272000000M15032406'
p1153
ssg23
S'0000001000000000000000000000110000010000000000000000000000000000'
p1154
sS'DE024'
p1155
S'640'
p1156
sS'DE050'
p1157
S'840'
p1158
sg29
S'1000000000000000000000010000000000000000000000010100000000000000'
p1159
sg31
S'1644'
p1160
sS'DE071'
p1161
S'00000015'
p1162
sS'DE094'
p1163
S'001662'
p1164
sS'DE093'
p1165
S'003869'
p1166
sS'DE100'
p1167
S'003869'
p1168
ssS'31'
p1169
(dp1170
S'DE048'
p1171
(dp1172
S'PDS0164'
p1173
S'69081339250000B1503240669464320000000B1503240670291378600000B1503240670452149000000B1503240670677040000000B1503240671081189890000B1503240672892937700000B1503240674881193300000B1503240675298655200000B1503240675690980900000B15032406'
p1174
ssg23
S'0000001000000000000000000000110000010000000000000000000000000000'
p1175
sS'DE024'
p1176
S'640'
p1177
sS'DE050'
p1178
S'840'
p1179
sg29
S'1000000000000000000000010000000000000000000000010100000000000000'
p1180
sg31
S'1644'
p1181
sS'DE071'
p1182
S'00000028'
p1183
sS'DE094'
p1184
S'001662'
p1185
sS'DE093'
p1186
S'003869'
p1187
sS'DE100'
p1188
S'003869'
p1189
ssS'30'
p1190
(dp1191
S'DE048'
p1192
(dp1193
S'PDS0164'
p1194
S'59892604167000B1503240660064810470000B1503240660493078000000B1503240660884471000000B1503240663493641200000B1503240664385987050000B1503240664676850000000B1503240665490649140000B1503240667852181900000B1503240668293750200000B15032406'
p1195
ssg23
S'0000001000000000000000000000110000010000000000000000000000000000'
p1196
sS'DE024'
p1197
S'640'
p1198
sS'DE050'
p1199
S'840'
p1200
sg29
S'1000000000000000000000010000000000000000000000010100000000000000'
p1201
sg31
S'1644'
p1202
sS'DE071'
p1203
S'00000027'
p1204
sS'DE094'
p1205
S'001662'
p1206
sS'DE093'
p1207
S'003869'
p1208
sS'DE100'
p1209
S'003869'
p1210
ssS'37'
p1211
(dp1212
S'DE048'
p1213
(dp1214
S'PDS0164'
p1215
S'00871291300000S1503240601289631640000S1503240603298800000000S1503240603691288494000S1503240604491000000000S1503240604890377030000S1503240605087803000000S1503240605174777100000S1503240605292027680000S1503240606091000000000S15032406'
p1216
ssg23
S'0000001000000000000000000000110000010000000000000000000000000000'
p1217
sS'DE024'
p1218
S'640'
p1219
sS'DE050'
p1220
S'840'
p1221
sg29
S'1000000000000000000000010000000000000000000000010100000000000000'
p1222
sg31
S'1644'
p1223
sS'DE071'
p1224
S'00000034'
p1225
sS'DE094'
p1226
S'001662'
p1227
sS'DE093'
p1228
S'003869'
p1229
sS'DE100'
p1230
S'003869'
p1231
ssS'36'
p1232
(dp1233
S'DE048'
p1234
(dp1235
S'PDS0164'
p1236
S'98192212000000B1503240698593840600000B1503240698693177400000B1503240699671893901380B15032406'
p1237
ssg23
S'0000001000000000000000000000110000010000000000000000000000000000'
p1238
sS'DE024'
p1239
S'640'
p1240
sS'DE050'
p1241
S'840'
p1242
sg29
S'1000000000000000000000010000000000000000000000010100000000000000'
p1243
sg31
S'1644'
p1244
sS'DE071'
p1245
S'00000033'
p1246
sS'DE094'
p1247
S'001662'
p1248
sS'DE093'
p1249
S'003869'
p1250
sS'DE100'
p1251
S'003869'
p1252
ssS'35'
p1253
(dp1254
S'DE048'
p1255
(dp1256
S'PDS0164'
p1257
S'96962977000000B1503240697185770000000B1503240697295700900000B1503240697371068950000B1503240697451468000000B1503240697591795800000B1503240697679160000000B1503240697791787885000B1503240697890913659000B1503240698082250000000B15032406'
p1258
ssg23
S'0000001000000000000000000000110000010000000000000000000000000000'
p1259
sS'DE024'
p1260
S'640'
p1261
sS'DE050'
p1262
S'840'
p1263
sg29
S'1000000000000000000000010000000000000000000000010100000000000000'
p1264
sg31
S'1644'
p1265
sS'DE071'
p1266
S'00000032'
p1267
sS'DE094'
p1268
S'001662'
p1269
sS'DE093'
p1270
S'003869'
p1271
sS'DE100'
p1272
S'003869'
p1273
ssS'34'
p1274
(dp1275
S'DE048'
p1276
(dp1277
S'PDS0164'
p1278
S'94383480000000B1503240694491048600000B1503240694694054400000B1503240694992569900000B1503240695076041200000B1503240695192688200000B1503240695276040000000B1503240695371091400000B1503240696797725000000B1503240696893247000000B15032406'
p1279
ssg23
S'0000001000000000000000000000110000010000000000000000000000000000'
p1280
sS'DE024'
p1281
S'640'
p1282
sS'DE050'
p1283
S'840'
p1284
sg29
S'1000000000000000000000010000000000000000000000010100000000000000'
p1285
sg31
S'1644'
p1286
sS'DE071'
p1287
S'00000031'
p1288
sS'DE094'
p1289
S'001662'
p1290
sS'DE093'
p1291
S'003869'
p1292
sS'DE100'
p1293
S'003869'
p1294
ssS'33'
p1295
(dp1296
S'DE048'
p1297
(dp1298
S'PDS0164'
p1299
S'84091000000000B1503240685882550000000B1503240686062478230000B1503240688292444390000B1503240688672148700000B1503240690183128000000B1503240693493349000000B1503240693693636900000B1503240693781200000000B1503240694171102400000B15032406'
p1300
ssg23
S'0000001000000000000000000000110000010000000000000000000000000000'
p1301
sS'DE024'
p1302
S'640'
p1303
sS'DE050'
p1304
S'840'
p1305
sg29
S'1000000000000000000000010000000000000000000000010100000000000000'
p1306
sg31
S'1644'
p1307
sS'DE071'
p1308
S'00000030'
p1309
sS'DE094'
p1310
S'001662'
p1311
sS'DE093'
p1312
S'003869'
p1313
sS'DE100'
p1314
S'003869'
p1315
ssS'55'
p1316
(dp1317
S'DE049'
p1318
S'156'
p1319
sS'DE071'
p1320
S'00000052'
p1321
sS'DE094'
p1322
S'001867'
p1323
sS'DE023'
p1324
S'000'
p1325
sS'DE093'
p1326
S'003869'
p1327
sS'DE100'
p1328
S'003869'
p1329
sS'DE033'
p1330
S'001867'
p1331
sS'DE031'
p1332
S'55418675083030302816745'
p1333
sS'DE010'
p1334
S'51924854'
p1335
sS'DE012'
p1336
S'150317171118'
p1337
sS'DE051'
p1338
S'392'
p1339
sS'DE050'
p1340
S'840'
p1341
sS'DE038'
p1342
S'261378'
p1343
sS'DE048'
p1344
(dp1345
S'PDS0023'
p1346
S'POI'
p1347
sS'PDS0146'
p1348
S'002901840000000000495840000000000495'
p1349
sS'PDS0158'
p1350
S'MCC20400016115032405    NNNNNN'
p1351
sS'PDS0159'
p1352
S'3869       4631231770                  1US00000001N1503240515032401'
p1353
sS'PDS0148'
p1354
S'156284023920'
p1355
sS'PDS0191'
p1356
g80
sS'PDS0002'
p1357
S'MCB'
p1358
sS'PDS0003'
p1359
S'MCB'
p1360
sS'PDS0165'
p1361
g86
sS'PDS0177'
p1362
S'YY'
p1363
ssg31
S'1240'
p1364
sS'DE111'
p1365
S'012000000000'
p1366
sS'DE006'
p1367
S'000000032019'
p1368
sS'DE004'
p1369
S'000000166345'
p1370
sS'DE005'
p1371
S'000000026825'
p1372
sS'DE002'
p1373
S'5442999999999999'
p1374
sS'DE003'
p1375
S'000000'
p1376
sg23
S'0000001000000000000000000000110000010000000000100000000000000000'
p1377
sS'DE024'
p1378
S'200'
p1379
sS'DE025'
p1380
S'1400'
p1381
sS'DE026'
p1382
S'5411'
p1383
sS'DE041'
p1384
S'31514627'
p1385
sS'DE022'
p1386
S'D00301199000'
p1387
sS'DE009'
p1388
S'71612612'
p1389
sg29
S'1111110011010000000001111100001010000100111000011110000000000010'
p1390
sS'DE042'
p1391
S'0303905602     '
p1392
sS'DE063'
p1393
S' MCBK6UD6A0317  '
p1394
sS'DE043'
p1395
S'ALIPAY*TAOBAO.COM\\MIN SHENG LU 1199 NONG ZHENG DA WU DAO K\\SHANGHAI\\200135    SHACHN'
p1396
ssS'32'
p1397
(dp1398
S'DE048'
p1399
(dp1400
S'PDS0164'
p1401
S'76483233950000B1503240677691904762000B1503240678096314000000B1503240678493672900000B1503240678891918700000B1503240680062955000000B1503240680785724790000B1503240681897630000000B1503240682690668673000B1503240683461838000000B15032406'
p1402
ssg23
S'0000001000000000000000000000110000010000000000000000000000000000'
p1403
sS'DE024'
p1404
S'640'
p1405
sS'DE050'
p1406
S'840'
p1407
sg29
S'1000000000000000000000010000000000000000000000010100000000000000'
p1408
sg31
S'1644'
p1409
sS'DE071'
p1410
S'00000029'
p1411
sS'DE094'
p1412
S'001662'
p1413
sS'DE093'
p1414
S'003869'
p1415
sS'DE100'
p1416
S'003869'
p1417
ssS'57'
p1418
(dp1419
S'DE048'
p1420
(dp1421
S'PDS0302'
p1422
S'I'
p1423
sS'PDS0374'
p1424
S'00'
p1425
sS'PDS0300'
p1426
S'0011503240000000386905601'
p1427
sS'PDS0372'
p1428
S'1240200'
p1429
sS'PDS0390'
p1430
S'D0000000000028002'
p1431
sS'PDS0391'
p1432
S'C0000000000000000'
p1433
sS'PDS0392'
p1434
S'00D000000000000000'
p1435
sS'PDS0393'
p1436
S'00C000000000000510'
p1437
sS'PDS0394'
p1438
S'D0000000000028002'
p1439
sS'PDS0148'
p1440
S'8402'
p1441
sS'PDS0378'
p1442
S'O'
p1443
sS'PDS0395'
p1444
S'C000000000000510'
p1445
sS'PDS0396'
p1446
S'D0000000000027492'
p1447
sS'PDS0402'
p1448
S'0000000003'
p1449
sS'PDS0400'
p1450
S'0000000003'
p1451
sS'PDS0401'
p1452
S'0000000000'
p1453
sS'PDS0165'
p1454
g86
ssg23
S'0000001000000000000000000000100000010000000000000000000000000000'
p1455
sS'DE024'
p1456
S'685'
p1457
sS'DE025'
p1458
S'6862'
p1459
sg29
S'1000000000000000000000011000000000000000000000010100000000000000'
p1460
sg31
S'1644'
p1461
sS'DE071'
p1462
S'00000054'
p1463
sS'DE050'
p1464
S'840'
p1465
sS'DE093'
p1466
S'003869'
p1467
sS'DE100'
p1468
S'003869'
p1469
ssS'50'
p1470
(dp1471
S'DE048'
p1472
(dp1473
S'PDS0164'
p1474
S'94383550000000S1503240694491048600000S1503240694694060400000S1503240694992574500000S1503240695076081200000S1503240695192716900000S1503240695276110000000S1503240695371100400000S1503240696797745000000S1503240696893297000000S15032406'
p1475
ssg23
S'0000001000000000000000000000110000010000000000000000000000000000'
p1476
sS'DE024'
p1477
S'640'
p1478
sS'DE050'
p1479
S'840'
p1480
sg29
S'1000000000000000000000010000000000000000000000010100000000000000'
p1481
sg31
S'1644'
p1482
sS'DE071'
p1483
S'00000047'
p1484
sS'DE094'
p1485
S'001662'
p1486
sS'DE093'
p1487
S'003869'
p1488
sS'DE100'
p1489
S'003869'
p1490
ss.