(dp0
S'1'
p1
(dp2
S'DE048'
p3
(dp4
S'PDS0105'
p5
S'0011503240000000386999601'
p6
sS'PDS0122'
p7
S'T'
p8
ssS'DE001'
p9
S'0000001000000000000000000000000000000000000000000000000000000000'
p10
sS'DE024'
p11
S'697'
p12
sS'bitmap_primary'
p13
S'1000000000000000000000010000000000000000000000010000000000000000'
p14
sS'MTI'
p15
S'1644'
p16
sS'DE071'
p17
S'00000001'
p18
ss.