(dp0
S'1'
p1
(dp2
S'DE048'
p3
(dp4
S'PDS0105'
p5
S'0011503240000000386999601'
p6
sS'PDS0122'
p7
S'T'
p8
ssS'DE001'
p9
S'0000001000000000000000000000000000000000000000000000000000000000'
p10
sS'DE024'
p11
S'697'
p12
sS'bitmap_primary'
p13
S'1000000000000000000000010000000000000000000000010000000000000000'
p14
sS'MTI'
p15
S'1644'
p16
sS'DE071'
p17
S'00000001'
p18
ssS'3'
p19
(dp20
S'DE049'
p21
S'156'
p22
sS'DE071'
p23
S'00000050'
p24
sS'DE094'
p25
S'001867'
p26
sS'DE023'
p27
S'000'
p28
sS'DE093'
p29
S'003869'
p30
sS'DE100'
p31
S'003869'
p32
sS'DE033'
p33
S'001867'
p34
sS'DE031'
p35
S'55418675083030300156029'
p36
sS'DE010'
p37
S'51924000'
p38
sS'DE012'
p39
S'150316000000'
p40
sS'DE051'
p41
S'392'
p42
sS'DE050'
p43
S'840'
p44
sS'DE038'
p45
S'647616'
p46
sS'DE048'
p47
(dp48
S'PDS0023'
p49
S'POI'
p50
sS'PDS0146'
p51
S'002901840000000000005840000000000005'
p52
sS'PDS0158'
p53
S'MCC20400018515032405    NNNNNN'
p54
sS'PDS0159'
p55
S'3869       4631231770                  1US00000001N1503240515032401'
p56
sS'PDS0148'
p57
S'156284023920'
p58
sS'PDS0191'
p59
S'2'
p60
sS'PDS0002'
p61
S'MCS'
p62
sS'PDS0003'
p63
S'MCS'
p64
sS'PDS0165'
p65
S'M'
p66
sS'PDS0177'
p67
S'YY'
p68
ssg15
S'1240'
p69
sS'DE111'
p70
S'012000000000'
p71
sS'DE006'
p72
S'000000000481'
p73
sS'DE004'
p74
S'000000002500'
p75
sS'DE005'
p76
S'000000000403'
p77
sS'DE002'
p78
S'5442999999999999'
p79
sS'DE003'
p80
S'000000'
p81
sg9
S'0000001000000000000000000000110000010000000000100000000000000000'
p82
sS'DE024'
p83
S'200'
p84
sS'DE025'
p85
S'1400'
p86
sS'DE026'
p87
S'5311'
p88
sS'DE022'
p89
S'D00301C99300'
p90
sS'DE009'
p91
S'71612000'
p92
sg13
S'1111110011010000000001111100001010000101011000011110000000000010'
p93
sS'DE042'
p94
S'0303404871     '
p95
sS'DE063'
p96
S' MCSJQVS6A0316  '
p97
sS'DE043'
p98
S'XIANGXUEHAI INTERNATIO\\NO1,Fuxingmen NeiDajie,Beijing,China\\SHANGHAI\\100818       CHN'
p99
sS'DE040'
p100
S'201'
p101
ssg60
(dp102
S'DE048'
p103
(dp104
S'PDS0164'
p105
S'19197020200000M1503240619291000000000M1503240620382509950000M1503240620896922750000M1503240621484470000000M1503240622298750000000M1503240623082050000000M1503240623890668740000M1503240624292034799000M1503240626271767500000M15032406'
p106
ssg9
S'0000001000000000000000000000110000010000000000000000000000000000'
p107
sS'DE024'
p108
S'640'
p109
sS'DE050'
p110
S'840'
p111
sg13
S'1000000000000000000000010000000000000000000000010100000000000000'
p112
sg15
S'1644'
p113
sS'DE071'
p114
S'00000005'
p115
sS'DE094'
p116
S'001662'
p117
sS'DE093'
p118
S'003869'
p119
sS'DE100'
p120
S'003869'
p121
ss.