(dp0
S'1'
p1
(dp2
S'DE048'
p3
(dp4
S'PDS0164'
p5
S'19197020200000M1503240619291000000000M1503240620382509950000M1503240620896922750000M1503240621484470000000M1503240622298750000000M1503240623082050000000M1503240623890668740000M1503240624292034799000M1503240626271767500000M15032406'
p6
ssS'DE001'
p7
S'0000001000000000000000000000110000010000000000000000000000000000'
p8
sS'DE024'
p9
S'640'
p10
sS'DE050'
p11
S'840'
p12
sS'bitmap_primary'
p13
S'1000000000000000000000010000000000000000000000010100000000000000'
p14
sS'MTI'
p15
S'1644'
p16
sS'DE071'
p17
S'00000005'
p18
sS'DE094'
p19
S'001662'
p20
sS'DE093'
p21
S'003869'
p22
sS'DE100'
p23
S'003869'
p24
ssS'0'
p25
(dp26
S'DE048'
p27
(dp28
S'PDS0105'
p29
S'0011503240000000386999601'
p30
sS'PDS0122'
p31
S'T'
p32
ssg7
S'0000001000000000000000000000000000000000000000000000000000000000'
p33
sS'DE024'
p34
S'697'
p35
sg13
S'1000000000000000000000010000000000000000000000010000000000000000'
p36
sg15
S'1644'
p37
sS'DE071'
p38
S'00000001'
p39
ss.