(dp0
S'1'
p1
(dp2
S'DE001'
p3
S'0000001000000000000000000000000000000000000000000000000000000000'
p4
sS'DE024'
p5
S'697'
p6
sS'bitmap_primary'
p7
S'1000000000000000000000010000000000000000000000010000000000000000'
p8
sS'MTI'
p9
S'1644'
p10
sS'PDS0105'
p11
S'0011503240000000386999601'
p12
sS'PDS0122'
p13
S'T'
p14
sS'DE071'
p15
S'00000001'
p16
ssS'3'
p17
(dp18
S'PDS0159'
p19
S'3869       4631231770                  1US00000001N1503240515032401'
p20
sS'DE049'
p21
S'156'
p22
sS'DE071'
p23
S'00000050'
p24
sS'PDS0191'
p25
S'2'
p26
sS'DE094'
p27
S'001867'
p28
sS'DE023'
p29
S'000'
p30
sS'DE093'
p31
S'003869'
p32
sS'DE100'
p33
S'003869'
p34
sS'DE033'
p35
S'001867'
p36
sS'DE031'
p37
S'55418675083030300156029'
p38
sS'DE010'
p39
S'51924000'
p40
sS'DE012'
p41
S'150316000000'
p42
sS'DE051'
p43
S'392'
p44
sS'DE050'
p45
S'840'
p46
sS'PDS0158'
p47
S'MCC20400018515032405    NNNNNN'
p48
sS'DE038'
p49
S'647616'
p50
sS'PDS0177'
p51
S'YY'
p52
sg9
S'1240'
p53
sS'DE111'
p54
S'012000000000'
p55
sS'PDS0146'
p56
S'002901840000000000005840000000000005'
p57
sS'DE006'
p58
S'000000000481'
p59
sS'PDS0023'
p60
S'POI'
p61
sS'DE004'
p62
S'000000002500'
p63
sS'DE005'
p64
S'000000000403'
p65
sS'DE002'
p66
S'5442999999999999'
p67
sS'DE003'
p68
S'000000'
p69
sg3
S'0000001000000000000000000000110000010000000000100000000000000000'
p70
sS'DE024'
p71
S'200'
p72
sS'DE025'
p73
S'1400'
p74
sS'DE026'
p75
S'5311'
p76
sS'PDS0148'
p77
S'156284023920'
p78
sS'DE022'
p79
S'D00301C99300'
p80
sS'DE009'
p81
S'71612000'
p82
sg7
S'1111110011010000000001111100001010000101011000011110000000000010'
p83
sS'DE042'
p84
S'0303404871     '
p85
sS'DE063'
p86
S' MCSJQVS6A0316  '
p87
sS'DE043'
p88
S'XIANGXUEHAI INTERNATIO\\NO1,Fuxingmen NeiDajie,Beijing,China\\SHANGHAI\\100818       CHN'
p89
sS'PDS0002'
p90
S'MCS'
p91
sS'PDS0003'
p92
S'MCS'
p93
sS'DE040'
p94
S'201'
p95
sS'PDS0165'
p96
S'M'
p97
ssg26
(dp98
g3
S'0000001000000000000000000000110000010000000000000000000000000000'
p99
sS'DE024'
p100
S'640'
p101
sS'DE050'
p102
S'840'
p103
sg7
S'1000000000000000000000010000000000000000000000010100000000000000'
p104
sg9
S'1644'
p105
sS'DE071'
p106
S'00000005'
p107
sS'DE094'
p108
S'001662'
p109
sS'DE100'
p110
S'003869'
p111
sS'DE093'
p112
S'003869'
p113
sS'PDS0164'
p114
S'19197020200000M1503240619291000000000M1503240620382509950000M1503240620896922750000M1503240621484470000000M1503240622298750000000M1503240623082050000000M1503240623890668740000M1503240624292034799000M1503240626271767500000M15032406'
p115
ss.