(dp0
S'56'
p1
(dp2
S'DE048'
p3
(dp4
S'PDS0302'
p5
S'I'
p6
sS'PDS0374'
p7
S'00'
p8
sS'PDS0300'
p9
S'0011503240000000386905601'
p10
sS'PDS0372'
p11
S'1240200'
p12
sS'PDS0390'
p13
S'D0000000000028002'
p14
sS'PDS0391'
p15
S'C0000000000000000'
p16
sS'PDS0392'
p17
S'00D000000000000000'
p18
sS'PDS0393'
p19
S'00C000000000000510'
p20
sS'PDS0394'
p21
S'D0000000000028002'
p22
sS'PDS0148'
p23
S'8402'
p24
sS'PDS0378'
p25
S'O'
p26
sS'PDS0395'
p27
S'C000000000000510'
p28
sS'PDS0396'
p29
S'D0000000000027492'
p30
sS'PDS0402'
p31
S'0000000003'
p32
sS'PDS0400'
p33
S'0000000003'
p34
sS'PDS0401'
p35
S'0000000000'
p36
sS'PDS0165'
p37
S'M'
p38
ssS'DE001'
p39
S'0000001000000000000000000000100000010000000000000000000000000000'
p40
sS'DE024'
p41
S'685'
p42
sS'DE025'
p43
S'6862'
p44
sS'bitmap_primary'
p45
S'1000000000000000000000011000000000000000000000010100000000000000'
p46
sS'MTI'
p47
S'1644'
p48
sS'DE071'
p49
S'00000054'
p50
sS'DE050'
p51
S'840'
p52
sS'DE093'
p53
S'003869'
p54
sS'DE100'
p55
S'003869'
p56
ssS'54'
p57
(dp58
S'DE049'
p59
S'156'
p60
sS'DE071'
p61
S'00000052'
p62
sS'DE094'
p63
S'001867'
p64
sS'DE023'
p65
S'000'
p66
sS'DE093'
p67
S'003869'
p68
sS'DE100'
p69
S'003869'
p70
sS'DE033'
p71
S'001867'
p72
sS'DE031'
p73
S'55418675083030302816745'
p74
sS'DE010'
p75
S'51924854'
p76
sS'DE012'
p77
S'150317171118'
p78
sS'DE051'
p79
S'392'
p80
sS'DE050'
p81
S'840'
p82
sS'DE038'
p83
S'261378'
p84
sS'DE048'
p85
(dp86
S'PDS0023'
p87
S'POI'
p88
sS'PDS0146'
p89
S'002901840000000000495840000000000495'
p90
sS'PDS0158'
p91
S'MCC20400016115032405    NNNNNN'
p92
sS'PDS0159'
p93
S'3869       4631231770                  1US00000001N1503240515032401'
p94
sS'PDS0148'
p95
S'156284023920'
p96
sS'PDS0191'
p97
S'2'
p98
sS'PDS0002'
p99
S'MCB'
p100
sS'PDS0003'
p101
S'MCB'
p102
sS'PDS0165'
p103
g38
sS'PDS0177'
p104
S'YY'
p105
ssg47
S'1240'
p106
sS'DE111'
p107
S'012000000000'
p108
sS'DE006'
p109
S'000000032019'
p110
sS'DE004'
p111
S'000000166345'
p112
sS'DE005'
p113
S'000000026825'
p114
sS'DE002'
p115
S'5442999999999999'
p116
sS'DE003'
p117
S'000000'
p118
sg39
S'0000001000000000000000000000110000010000000000100000000000000000'
p119
sS'DE024'
p120
S'200'
p121
sS'DE025'
p122
S'1400'
p123
sS'DE026'
p124
S'5411'
p125
sS'DE041'
p126
S'31514627'
p127
sS'DE022'
p128
S'D00301199000'
p129
sS'DE009'
p130
S'71612612'
p131
sg45
S'1111110011010000000001111100001010000100111000011110000000000010'
p132
sS'DE042'
p133
S'0303905602     '
p134
sS'DE063'
p135
S' MCBK6UD6A0317  '
p136
sS'DE043'
p137
S'ALIPAY*TAOBAO.COM\\MIN SHENG LU 1199 NONG ZHENG DA WU DAO K\\SHANGHAI\\200135    SHACHN'
p138
ssS'42'
p139
(dp140
S'DE048'
p141
(dp142
S'PDS0164'
p143
S'41490300100000S1503240641786231250000S1503240641868140000000S1503240642261514000000S1503240642681198600000S1503240643088500000000S1503240643491400000000S1503240644092854200000S1503240644697988680000S1503240645474468500000S15032406'
p144
ssg39
S'0000001000000000000000000000110000010000000000000000000000000000'
p145
sS'DE024'
p146
S'640'
p147
sS'DE050'
p148
S'840'
p149
sg45
S'1000000000000000000000010000000000000000000000010100000000000000'
p150
sg47
S'1644'
p151
sS'DE071'
p152
S'00000040'
p153
sS'DE094'
p154
S'001662'
p155
sS'DE093'
p156
S'003869'
p157
sS'DE100'
p158
S'003869'
p159
ssS'48'
p160
(dp161
S'DE048'
p162
(dp163
S'PDS0164'
p164
S'84091000000000S1503240685882555000000S1503240686062478230000S1503240688292550370000S1503240688672149100000S1503240690183128600000S1503240693493649000000S1503240693693640500000S1503240693781200000000S1503240694171104300000S15032406'
p165
ssg39
S'0000001000000000000000000000110000010000000000000000000000000000'
p166
sS'DE024'
p167
S'640'
p168
sS'DE050'
p169
S'840'
p170
sg45
S'1000000000000000000000010000000000000000000000010100000000000000'
p171
sg47
S'1644'
p172
sS'DE071'
p173
S'00000046'
p174
sS'DE094'
p175
S'001662'
p176
sS'DE093'
p177
S'003869'
p178
sS'DE100'
p179
S'003869'
p180
ssS'43'
p181
(dp182
S'DE048'
p183
(dp184
S'PDS0164'
p185
S'45893696500000S1503240646281561000000S1503240647873170000000S1503240648083685000000S1503240648481494930000S1503240649661995000000S1503240649881868000000S1503240650499874000000S1503240651290385030000S1503240651681196140000S15032406'
p186
ssg39
S'0000001000000000000000000000110000010000000000000000000000000000'
p187
sS'DE024'
p188
S'640'
p189
sS'DE050'
p190
S'840'
p191
sg45
S'1000000000000000000000010000000000000000000000010100000000000000'
p192
sg47
S'1644'
p193
sS'DE071'
p194
S'00000041'
p195
sS'DE094'
p196
S'001662'
p197
sS'DE093'
p198
S'003869'
p199
sS'DE100'
p200
S'003869'
p201
ssS'49'
p202
(dp203
S'DE048'
p204
(dp205
S'PDS0164'
p206
S'94383550000000S1503240694491048600000S1503240694694060400000S1503240694992574500000S1503240695076081200000S1503240695192716900000S1503240695276110000000S1503240695371100400000S1503240696797745000000S1503240696893297000000S15032406'
p207
ssg39
S'0000001000000000000000000000110000010000000000000000000000000000'
p208
sS'DE024'
p209
S'640'
p210
sS'DE050'
p211
S'840'
p212
sg45
S'1000000000000000000000010000000000000000000000010100000000000000'
p213
sg47
S'1644'
p214
sS'DE071'
p215
S'00000047'
p216
sS'DE094'
p217
S'001662'
p218
sS'DE093'
p219
S'003869'
p220
sS'DE100'
p221
S'003869'
p222
ssS'52'
p223
(dp224
S'DE049'
p225
S'156'
p226
sS'DE071'
p227
S'00000050'
p228
sS'DE094'
p229
S'001867'
p230
sS'DE023'
p231
S'000'
p232
sS'DE093'
p233
S'003869'
p234
sS'DE100'
p235
S'003869'
p236
sS'DE033'
p237
S'001867'
p238
sS'DE031'
p239
S'55418675083030300156029'
p240
sS'DE010'
p241
S'51924000'
p242
sS'DE012'
p243
S'150316000000'
p244
sS'DE051'
p245
S'392'
p246
sS'DE050'
p247
S'840'
p248
sS'DE038'
p249
S'647616'
p250
sS'DE048'
p251
(dp252
S'PDS0023'
p253
S'POI'
p254
sS'PDS0146'
p255
S'002901840000000000005840000000000005'
p256
sS'PDS0158'
p257
S'MCC20400018515032405    NNNNNN'
p258
sS'PDS0159'
p259
S'3869       4631231770                  1US00000001N1503240515032401'
p260
sS'PDS0148'
p261
S'156284023920'
p262
sS'PDS0191'
p263
g98
sS'PDS0002'
p264
S'MCS'
p265
sS'PDS0003'
p266
S'MCS'
p267
sS'PDS0165'
p268
g38
sS'PDS0177'
p269
S'YY'
p270
ssg47
S'1240'
p271
sS'DE111'
p272
S'012000000000'
p273
sS'DE006'
p274
S'000000000481'
p275
sS'DE004'
p276
S'000000002500'
p277
sS'DE005'
p278
S'000000000403'
p279
sS'DE002'
p280
S'5442999999999999'
p281
sS'DE003'
p282
S'000000'
p283
sg39
S'0000001000000000000000000000110000010000000000100000000000000000'
p284
sS'DE024'
p285
S'200'
p286
sS'DE025'
p287
S'1400'
p288
sS'DE026'
p289
S'5311'
p290
sS'DE022'
p291
S'D00301C99300'
p292
sS'DE009'
p293
S'71612000'
p294
sg45
S'1111110011010000000001111100001010000101011000011110000000000010'
p295
sS'DE042'
p296
S'0303404871     '
p297
sS'DE063'
p298
S' MCSJQVS6A0316  '
p299
sS'DE043'
p300
S'XIANGXUEHAI INTERNATIO\\NO1,Fuxingmen NeiDajie,Beijing,China\\SHANGHAI\\100818       CHN'
p301
sS'DE040'
p302
S'201'
p303
ssS'53'
p304
(dp305
S'DE049'
p306
S'156'
p307
sS'DE071'
p308
S'00000051'
p309
sS'DE094'
p310
S'001867'
p311
sS'DE023'
p312
S'000'
p313
sS'DE093'
p314
S'003869'
p315
sS'DE100'
p316
S'003869'
p317
sS'DE033'
p318
S'001867'
p319
sS'DE031'
p320
S'55418675083030300156037'
p321
sS'DE010'
p322
S'51927083'
p323
sS'DE012'
p324
S'150316000000'
p325
sS'DE051'
p326
S'392'
p327
sS'DE050'
p328
S'840'
p329
sS'DE038'
p330
S'623601'
p331
sS'DE048'
p332
(dp333
S'PDS0023'
p334
S'POI'
p335
sS'PDS0146'
p336
S'002901840000000000010840000000000010'
p337
sS'PDS0158'
p338
S'MCC20400018515032405    NNNNNN'
p339
sS'PDS0159'
p340
S'3869       4631231770                  1US00000001N1503240515032401'
p341
sS'PDS0148'
p342
S'156284023920'
p343
sS'PDS0191'
p344
g98
sS'PDS0002'
p345
S'MCS'
p346
sS'PDS0003'
p347
S'MCS'
p348
sS'PDS0165'
p349
g38
sS'PDS0177'
p350
S'YY'
p351
ssg47
S'1240'
p352
sS'DE111'
p353
S'012000000000'
p354
sS'DE006'
p355
S'000000000925'
p356
sS'DE004'
p357
S'000000004800'
p358
sS'DE005'
p359
S'000000000774'
p360
sS'DE002'
p361
S'5442999999999999'
p362
sS'DE003'
p363
S'000000'
p364
sg39
S'0000001000000000000000000000110000010000000000100000000000000000'
p365
sS'DE024'
p366
S'200'
p367
sS'DE025'
p368
S'1400'
p369
sS'DE026'
p370
S'5311'
p371
sS'DE022'
p372
S'D00301C99300'
p373
sS'DE009'
p374
S'71612500'
p375
sg45
S'1111110011010000000001111100001010000101011000011110000000000010'
p376
sS'DE042'
p377
S'0303404871     '
p378
sS'DE063'
p379
S' MCSJQC16A0316  '
p380
sS'DE043'
p381
S'XIANGXUEHAI INTERNATIO\\NO1,Fuxingmen NeiDajie,Beijing,China\\SHANGHAI\\100818       CHN'
p382
sS'DE040'
p383
S'201'
p384
ssS'24'
p385
(dp386
S'DE048'
p387
(dp388
S'PDS0164'
p389
S'27084260000000B1503240629290668673000B1503240632097633000000B1503240632467220000000B1503240632872032100000B1503240633284711140000B1503240634082139000000B1503240634497755600000B1503240634872766700000B1503240635271366500000B15032406'
p390
ssg39
S'0000001000000000000000000000110000010000000000000000000000000000'
p391
sS'DE024'
p392
S'640'
p393
sS'DE050'
p394
S'840'
p395
sg45
S'1000000000000000000000010000000000000000000000010100000000000000'
p396
sg47
S'1644'
p397
sS'DE071'
p398
S'00000022'
p399
sS'DE094'
p400
S'001662'
p401
sS'DE093'
p402
S'003869'
p403
sS'DE100'
p404
S'003869'
p405
ssS'25'
p406
(dp407
S'DE048'
p408
(dp409
S'PDS0164'
p410
S'35686221500000B1503240636051301400000B1503240636861164000000B1503240637693974800000B1503240638871147126000B1503240639271195700000B1503240639871859900000B1503240640090708400000B1503240640489185000000B1503240641061106230000B15032406'
p411
ssg39
S'0000001000000000000000000000110000010000000000000000000000000000'
p412
sS'DE024'
p413
S'640'
p414
sS'DE050'
p415
S'840'
p416
sg45
S'1000000000000000000000010000000000000000000000010100000000000000'
p417
sg47
S'1644'
p418
sS'DE071'
p419
S'00000023'
p420
sS'DE094'
p421
S'001662'
p422
sS'DE093'
p423
S'003869'
p424
sS'DE100'
p425
S'003869'
p426
ssS'26'
p427
(dp428
S'DE048'
p429
(dp430
S'PDS0164'
p431
S'41490299100000B1503240641786231250000B1503240641868090000000B1503240642261501000000B1503240642681193500000B1503240643088400000000B1503240643491395000000B1503240644092853600000B1503240644697987650000B1503240645474268500000B15032406'
p432
ssg39
S'0000001000000000000000000000110000010000000000000000000000000000'
p433
sS'DE024'
p434
S'640'
p435
sS'DE050'
p436
S'840'
p437
sg45
S'1000000000000000000000010000000000000000000000010100000000000000'
p438
sg47
S'1644'
p439
sS'DE071'
p440
S'00000024'
p441
sS'DE094'
p442
S'001662'
p443
sS'DE093'
p444
S'003869'
p445
sS'DE100'
p446
S'003869'
p447
ssS'27'
p448
(dp449
S'DE048'
p450
(dp451
S'PDS0164'
p452
S'45893695500000B1503240646281527000000B1503240647873120000000B1503240648083655000000B1503240648481494430000B1503240649661984000000B1503240649881858000000B1503240650499805185000B1503240651290385000000B1503240651681195080000B15032406'
p453
ssg39
S'0000001000000000000000000000110000010000000000000000000000000000'
p454
sS'DE024'
p455
S'640'
p456
sS'DE050'
p457
S'840'
p458
sg45
S'1000000000000000000000010000000000000000000000010100000000000000'
p459
sg47
S'1644'
p460
sS'DE071'
p461
S'00000025'
p462
sS'DE094'
p463
S'001662'
p464
sS'DE093'
p465
S'003869'
p466
sS'DE100'
p467
S'003869'
p468
ssS'20'
p469
(dp470
S'DE048'
p471
(dp472
S'PDS0164'
p473
S'00871288600000B1503240601289579840000B1503240603298795000000B1503240603691287996000B1503240604491000000000B1503240604890377000000B1503240605087778000000B1503240605174777100000B1503240605291990000000B1503240606091000000000B15032406'
p474
ssg39
S'0000001000000000000000000000110000010000000000000000000000000000'
p475
sS'DE024'
p476
S'640'
p477
sS'DE050'
p478
S'840'
p479
sg45
S'1000000000000000000000010000000000000000000000010100000000000000'
p480
sg47
S'1644'
p481
sS'DE071'
p482
S'00000018'
p483
sS'DE094'
p484
S'001662'
p485
sS'DE093'
p486
S'003869'
p487
sS'DE100'
p488
S'003869'
p489
ssS'21'
p490
(dp491
S'DE048'
p492
(dp493
S'PDS0164'
p494
S'06486227000000B1503240606896860000000B1503240607299852217000B1503240608491982500000B1503240609097633588000B1503240609691378600000B1503240610461034000000B1503240610861531100000B1503240611664005000000B1503240612491261200000B15032406'
p495
ssg39
S'0000001000000000000000000000110000010000000000000000000000000000'
p496
sS'DE024'
p497
S'640'
p498
sS'DE050'
p499
S'840'
p500
sg45
S'1000000000000000000000010000000000000000000000010100000000000000'
p501
sg47
S'1644'
p502
sS'DE071'
p503
S'00000019'
p504
sS'DE094'
p505
S'001662'
p506
sS'DE093'
p507
S'003869'
p508
sS'DE100'
p509
S'003869'
p510
ssS'22'
p511
(dp512
S'DE048'
p513
(dp514
S'PDS0164'
p515
S'13271002500000B1503240613690833300000B1503240614471331000000B1503240615276258000000B1503240615696213500000B1503240615796215300000B1503240615896083352000B1503240617062586950000B1503240617474625000000B1503240618875264000000B15032406'
p516
ssg39
S'0000001000000000000000000000110000010000000000000000000000000000'
p517
sS'DE024'
p518
S'640'
p519
sS'DE050'
p520
S'840'
p521
sg45
S'1000000000000000000000010000000000000000000000010100000000000000'
p522
sg47
S'1644'
p523
sS'DE071'
p524
S'00000020'
p525
sS'DE094'
p526
S'001662'
p527
sS'DE093'
p528
S'003869'
p529
sS'DE100'
p530
S'003869'
p531
ssS'23'
p532
(dp533
S'DE048'
p534
(dp535
S'PDS0164'
p536
S'19197017100000B1503240619291000000000B1503240620382507300000B1503240620896922000000B1503240621484465000000B1503240622298750000000B1503240623082020000000B1503240623890668673000B1503240624292014099000B1503240626271767500000B15032406'
p537
ssg39
S'0000001000000000000000000000110000010000000000000000000000000000'
p538
sS'DE024'
p539
S'640'
p540
sS'DE050'
p541
S'840'
p542
sg45
S'1000000000000000000000010000000000000000000000010100000000000000'
p543
sg47
S'1644'
p544
sS'DE071'
p545
S'00000021'
p546
sS'DE094'
p547
S'001662'
p548
sS'DE093'
p549
S'003869'
p550
sS'DE100'
p551
S'003869'
p552
ssS'46'
p553
(dp554
S'DE048'
p555
(dp556
S'PDS0164'
p557
S'69081389710000S1503240669464420000000S1503240670291379000000S1503240670452156000000S1503240670677110000000S1503240671081190640000S1503240672892962300000S1503240674881198400000S1503240675298658700000S1503240675690981200000S15032406'
p558
ssg39
S'0000001000000000000000000000110000010000000000000000000000000000'
p559
sS'DE024'
p560
S'640'
p561
sS'DE050'
p562
S'840'
p563
sg45
S'1000000000000000000000010000000000000000000000010100000000000000'
p564
sg47
S'1644'
p565
sS'DE071'
p566
S'00000044'
p567
sS'DE094'
p568
S'001662'
p569
sS'DE093'
p570
S'003869'
p571
sS'DE100'
p572
S'003869'
p573
ssS'47'
p574
(dp575
S'DE048'
p576
(dp577
S'PDS0164'
p578
S'76483273430000S1503240677692067397000S1503240678096363100000S1503240678493673000000S1503240678891918700000S1503240680062965000000S1503240680785724790000S1503240681897630100000S1503240682690668807000S1503240683461848000000S15032406'
p579
ssg39
S'0000001000000000000000000000110000010000000000000000000000000000'
p580
sS'DE024'
p581
S'640'
p582
sS'DE050'
p583
S'840'
p584
sg45
S'1000000000000000000000010000000000000000000000010100000000000000'
p585
sg47
S'1644'
p586
sS'DE071'
p587
S'00000045'
p588
sS'DE094'
p589
S'001662'
p590
sS'DE093'
p591
S'003869'
p592
sS'DE100'
p593
S'003869'
p594
ssS'44'
p595
(dp596
S'DE048'
p597
(dp598
S'PDS0164'
p599
S'52471001400000S1503240653291790000000S1503240653391790000000S1503240654871060000000S1503240655491309072000S1503240655882625000000S1503240656671997500000S1503240657898072200000S1503240658671019000000S1503240659091000000000S15032406'
p600
ssg39
S'0000001000000000000000000000110000010000000000000000000000000000'
p601
sS'DE024'
p602
S'640'
p603
sS'DE050'
p604
S'840'
p605
sg45
S'1000000000000000000000010000000000000000000000010100000000000000'
p606
sg47
S'1644'
p607
sS'DE071'
p608
S'00000042'
p609
sS'DE094'
p610
S'001662'
p611
sS'DE093'
p612
S'003869'
p613
sS'DE100'
p614
S'003869'
p615
ssS'45'
p616
(dp617
S'DE048'
p618
(dp619
S'PDS0164'
p620
S'59892710027000S1503240660064819650000S1503240660493079000000S1503240660884476000000S1503240663493641600000S1503240664385988300000S1503240664676960000000S1503240665490649984000S1503240667852317700000S1503240668293750500000S15032406'
p621
ssg39
S'0000001000000000000000000000110000010000000000000000000000000000'
p622
sS'DE024'
p623
S'640'
p624
sS'DE050'
p625
S'840'
p626
sg45
S'1000000000000000000000010000000000000000000000010100000000000000'
p627
sg47
S'1644'
p628
sS'DE071'
p629
S'00000043'
p630
sS'DE094'
p631
S'001662'
p632
sS'DE093'
p633
S'003869'
p634
sS'DE100'
p635
S'003869'
p636
ssS'28'
p637
(dp638
S'DE048'
p639
(dp640
S'PDS0164'
p641
S'52489914000000B1503240653291790000000B1503240653391790000000B1503240654871040000000B1503240655491308387000B1503240655882625000000B1503240656671996500000B1503240657898068700000B1503240658671017900000B1503240659091000000000B15032406'
p642
ssg39
S'0000001000000000000000000000110000010000000000000000000000000000'
p643
sS'DE024'
p644
S'640'
p645
sS'DE050'
p646
S'840'
p647
sg45
S'1000000000000000000000010000000000000000000000010100000000000000'
p648
sg47
S'1644'
p649
sS'DE071'
p650
S'00000026'
p651
sS'DE094'
p652
S'001662'
p653
sS'DE093'
p654
S'003869'
p655
sS'DE100'
p656
S'003869'
p657
ssS'29'
p658
(dp659
S'DE048'
p660
(dp661
S'PDS0164'
p662
S'59892604167000B1503240660064810470000B1503240660493078000000B1503240660884471000000B1503240663493641200000B1503240664385987050000B1503240664676850000000B1503240665490649140000B1503240667852181900000B1503240668293750200000B15032406'
p663
ssg39
S'0000001000000000000000000000110000010000000000000000000000000000'
p664
sS'DE024'
p665
S'640'
p666
sS'DE050'
p667
S'840'
p668
sg45
S'1000000000000000000000010000000000000000000000010100000000000000'
p669
sg47
S'1644'
p670
sS'DE071'
p671
S'00000027'
p672
sS'DE094'
p673
S'001662'
p674
sS'DE093'
p675
S'003869'
p676
sS'DE100'
p677
S'003869'
p678
ssS'40'
p679
(dp680
S'DE048'
p681
(dp682
S'PDS0164'
p683
S'27084360000000S1503240629290668807000S1503240632097636000000S1503240632467420000000S1503240632872092100000S1503240633284745240000S1503240634082139000000S1503240634497756100000S1503240634872769200000S1503240635271373100000S15032406'
p684
ssg39
S'0000001000000000000000000000110000010000000000000000000000000000'
p685
sS'DE024'
p686
S'640'
p687
sS'DE050'
p688
S'840'
p689
sg45
S'1000000000000000000000010000000000000000000000010100000000000000'
p690
sg47
S'1644'
p691
sS'DE071'
p692
S'00000038'
p693
sS'DE094'
p694
S'001662'
p695
sS'DE093'
p696
S'003869'
p697
sS'DE100'
p698
S'003869'
p699
ssS'41'
p700
(dp701
S'DE048'
p702
(dp703
S'PDS0164'
p704
S'35686224500000S1503240636051302500000S1503240636861166000000S1503240637693980800000S1503240638871151893000S1503240639271196000000S1503240639871860400000S1503240640090708900000S1503240640489205000000S1503240641061108230000S15032406'
p705
ssg39
S'0000001000000000000000000000110000010000000000000000000000000000'
p706
sS'DE024'
p707
S'640'
p708
sS'DE050'
p709
S'840'
p710
sg45
S'1000000000000000000000010000000000000000000000010100000000000000'
p711
sg47
S'1644'
p712
sS'DE071'
p713
S'00000039'
p714
sS'DE094'
p715
S'001662'
p716
sS'DE093'
p717
S'003869'
p718
sS'DE100'
p719
S'003869'
p720
ssS'1'
p721
(dp722
S'DE048'
p723
(dp724
S'PDS0164'
p725
S'19197020200000M1503240619291000000000M1503240620382509950000M1503240620896922750000M1503240621484470000000M1503240622298750000000M1503240623082050000000M1503240623890668740000M1503240624292034799000M1503240626271767500000M15032406'
p726
ssg39
S'0000001000000000000000000000110000010000000000000000000000000000'
p727
sS'DE024'
p728
S'640'
p729
sS'DE050'
p730
S'840'
p731
sg45
S'1000000000000000000000010000000000000000000000010100000000000000'
p732
sg47
S'1644'
p733
sS'DE071'
p734
S'00000005'
p735
sS'DE094'
p736
S'001662'
p737
sS'DE093'
p738
S'003869'
p739
sS'DE100'
p740
S'003869'
p741
ssS'0'
p742
(dp743
S'DE048'
p744
(dp745
S'PDS0105'
p746
S'0011503240000000386999601'
p747
sS'PDS0122'
p748
S'T'
p749
ssg39
S'0000001000000000000000000000000000000000000000000000000000000000'
p750
sS'DE024'
p751
S'697'
p752
sg45
S'1000000000000000000000010000000000000000000000010000000000000000'
p753
sg47
S'1644'
p754
sS'DE071'
p755
S'00000001'
p756
ssS'3'
p757
(dp758
S'DE048'
p759
(dp760
S'PDS0105'
p761
S'0011503240000000386999601'
p762
sS'PDS0122'
p763
g749
ssg39
S'0000001000000000000000000000000000000000000000000000000000000000'
p764
sS'DE024'
p765
S'697'
p766
sg45
S'1000000000000000000000010000000000000000000000010000000000000000'
p767
sg47
S'1644'
p768
sS'DE071'
p769
S'00000001'
p770
ssg98
(dp771
S'DE049'
p772
S'156'
p773
sS'DE071'
p774
S'00000050'
p775
sS'DE094'
p776
S'001867'
p777
sS'DE023'
p778
S'000'
p779
sS'DE093'
p780
S'003869'
p781
sS'DE100'
p782
S'003869'
p783
sS'DE033'
p784
S'001867'
p785
sS'DE031'
p786
S'55418675083030300156029'
p787
sS'DE010'
p788
S'51924000'
p789
sS'DE012'
p790
S'150316000000'
p791
sS'DE051'
p792
S'392'
p793
sS'DE050'
p794
S'840'
p795
sS'DE038'
p796
S'647616'
p797
sS'DE048'
p798
(dp799
S'PDS0023'
p800
S'POI'
p801
sS'PDS0146'
p802
S'002901840000000000005840000000000005'
p803
sS'PDS0158'
p804
S'MCC20400018515032405    NNNNNN'
p805
sS'PDS0159'
p806
S'3869       4631231770                  1US00000001N1503240515032401'
p807
sS'PDS0148'
p808
S'156284023920'
p809
sS'PDS0191'
p810
g98
sS'PDS0002'
p811
S'MCS'
p812
sS'PDS0003'
p813
S'MCS'
p814
sS'PDS0165'
p815
g38
sS'PDS0177'
p816
S'YY'
p817
ssg47
S'1240'
p818
sS'DE111'
p819
S'012000000000'
p820
sS'DE006'
p821
S'000000000481'
p822
sS'DE004'
p823
S'000000002500'
p824
sS'DE005'
p825
S'000000000403'
p826
sS'DE002'
p827
S'5442999999999999'
p828
sS'DE003'
p829
S'000000'
p830
sg39
S'0000001000000000000000000000110000010000000000100000000000000000'
p831
sS'DE024'
p832
S'200'
p833
sS'DE025'
p834
S'1400'
p835
sS'DE026'
p836
S'5311'
p837
sS'DE022'
p838
S'D00301C99300'
p839
sS'DE009'
p840
S'71612000'
p841
sg45
S'1111110011010000000001111100001010000101011000011110000000000010'
p842
sS'DE042'
p843
S'0303404871     '
p844
sS'DE063'
p845
S' MCSJQVS6A0316  '
p846
sS'DE043'
p847
S'XIANGXUEHAI INTERNATIO\\NO1,Fuxingmen NeiDajie,Beijing,China\\SHANGHAI\\100818       CHN'
p848
sS'DE040'
p849
S'201'
p850
ssS'5'
p851
(dp852
S'DE048'
p853
(dp854
S'PDS0164'
p855
S'06486227500000M1503240606896910000000M1503240607299866820000M1503240608492000000000M1503240609097723044000M1503240609691378800000M1503240610461035000000M1503240610861556100000M1503240611664010000000M1503240612491261350000M15032406'
p856
ssg39
S'0000001000000000000000000000110000010000000000000000000000000000'
p857
sS'DE024'
p858
S'640'
p859
sS'DE050'
p860
S'840'
p861
sg45
S'1000000000000000000000010000000000000000000000010100000000000000'
p862
sg47
S'1644'
p863
sS'DE071'
p864
S'00000003'
p865
sS'DE094'
p866
S'001662'
p867
sS'DE093'
p868
S'003869'
p869
sS'DE100'
p870
S'003869'
p871
ssS'4'
p872
(dp873
S'DE048'
p874
(dp875
S'PDS0164'
p876
S'00871289950000M1503240601289605740000M1503240603298797500000M1503240603691288245000M1503240604491000000000M1503240604890377015000M1503240605087790500000M1503240605174777100000M1503240605292008840000M1503240606091000000000M15032406'
p877
ssg39
S'0000001000000000000000000000110000010000000000000000000000000000'
p878
sS'DE024'
p879
S'640'
p880
sS'DE050'
p881
S'840'
p882
sg45
S'1000000000000000000000010000000000000000000000010100000000000000'
p883
sg47
S'1644'
p884
sS'DE071'
p885
S'00000002'
p886
sS'DE094'
p887
S'001662'
p888
sS'DE093'
p889
S'003869'
p890
sS'DE100'
p891
S'003869'
p892
ssS'7'
p893
(dp894
S'DE048'
p895
(dp896
S'PDS0164'
p897
S'19197020200000M1503240619291000000000M1503240620382509950000M1503240620896922750000M1503240621484470000000M1503240622298750000000M1503240623082050000000M1503240623890668740000M1503240624292034799000M1503240626271767500000M15032406'
p898
ssg39
S'0000001000000000000000000000110000010000000000000000000000000000'
p899
sS'DE024'
p900
S'640'
p901
sS'DE050'
p902
S'840'
p903
sg45
S'1000000000000000000000010000000000000000000000010100000000000000'
p904
sg47
S'1644'
p905
sS'DE071'
p906
S'00000005'
p907
sS'DE094'
p908
S'001662'
p909
sS'DE093'
p910
S'003869'
p911
sS'DE100'
p912
S'003869'
p913
ssS'6'
p914
(dp915
S'DE048'
p916
(dp917
S'PDS0164'
p918
S'13271005000000M1503240613690833300000M1503240614471333000000M1503240615276262000000M1503240615696213500000M1503240615796216050000M1503240615896083352000M1503240617062587705000M1503240617474630000000M1503240618875339000000M15032406'
p919
ssg39
S'0000001000000000000000000000110000010000000000000000000000000000'
p920
sS'DE024'
p921
S'640'
p922
sS'DE050'
p923
S'840'
p924
sg45
S'1000000000000000000000010000000000000000000000010100000000000000'
p925
sg47
S'1644'
p926
sS'DE071'
p927
S'00000004'
p928
sS'DE094'
p929
S'001662'
p930
sS'DE093'
p931
S'003869'
p932
sS'DE100'
p933
S'003869'
p934
ssS'9'
p935
(dp936
S'DE048'
p937
(dp938
S'PDS0164'
p939
S'35686223000000M1503240636051301950000M1503240636861165000000M1503240637693977800000M1503240638871149509500M1503240639271195850000M1503240639871860150000M1503240640090708650000M1503240640489195000000M1503240641061107230000M15032406'
p940
ssg39
S'0000001000000000000000000000110000010000000000000000000000000000'
p941
sS'DE024'
p942
S'640'
p943
sS'DE050'
p944
S'840'
p945
sg45
S'1000000000000000000000010000000000000000000000010100000000000000'
p946
sg47
S'1644'
p947
sS'DE071'
p948
S'00000007'
p949
sS'DE094'
p950
S'001662'
p951
sS'DE093'
p952
S'003869'
p953
sS'DE100'
p954
S'003869'
p955
ssS'8'
p956
(dp957
S'DE048'
p958
(dp959
S'PDS0164'
p960
S'27084310000000M1503240629290668740000M1503240632097634500000M1503240632467320000000M1503240632872062100000M1503240633284728190000M1503240634082139000000M1503240634497755850000M1503240634872767950000M1503240635271369800000M15032406'
p961
ssg39
S'0000001000000000000000000000110000010000000000000000000000000000'
p962
sS'DE024'
p963
S'640'
p964
sS'DE050'
p965
S'840'
p966
sg45
S'1000000000000000000000010000000000000000000000010100000000000000'
p967
sg47
S'1644'
p968
sS'DE071'
p969
S'00000006'
p970
sS'DE094'
p971
S'001662'
p972
sS'DE093'
p973
S'003869'
p974
sS'DE100'
p975
S'003869'
p976
ssS'51'
p977
(dp978
S'DE048'
p979
(dp980
S'PDS0164'
p981
S'98192243600000S1503240698593843100000S1503240698693178000000S1503240699671893901380S15032406'
p982
ssg39
S'0000001000000000000000000000110000010000000000000000000000000000'
p983
sS'DE024'
p984
S'640'
p985
sS'DE050'
p986
S'840'
p987
sg45
S'1000000000000000000000010000000000000000000000010100000000000000'
p988
sg47
S'1644'
p989
sS'DE071'
p990
S'00000049'
p991
sS'DE094'
p992
S'001662'
p993
sS'DE093'
p994
S'003869'
p995
sS'DE100'
p996
S'003869'
p997
ssS'39'
p998
(dp999
S'DE048'
p1000
(dp1001
S'PDS0164'
p1002
S'19197023300000S1503240619291000000000S1503240620382512600000S1503240620896923500000S1503240621484475000000S1503240622298750000000S1503240623082080000000S1503240623890668807000S1503240624292055498000S1503240626271767500000S15032406'
p1003
ssg39
S'0000001000000000000000000000110000010000000000000000000000000000'
p1004
sS'DE024'
p1005
S'640'
p1006
sS'DE050'
p1007
S'840'
p1008
sg45
S'1000000000000000000000010000000000000000000000010100000000000000'
p1009
sg47
S'1644'
p1010
sS'DE071'
p1011
S'00000037'
p1012
sS'DE094'
p1013
S'001662'
p1014
sS'DE093'
p1015
S'003869'
p1016
sS'DE100'
p1017
S'003869'
p1018
ssS'38'
p1019
(dp1020
S'DE048'
p1021
(dp1022
S'PDS0164'
p1023
S'13271007500000S1503240613690833300000S1503240614471335000000S1503240615276266000000S1503240615696213500000S1503240615796216800000S1503240615896083352000S1503240617062588460000S1503240617474635000000S1503240618875414000000S15032406'
p1024
ssg39
S'0000001000000000000000000000110000010000000000000000000000000000'
p1025
sS'DE024'
p1026
S'640'
p1027
sS'DE050'
p1028
S'840'
p1029
sg45
S'1000000000000000000000010000000000000000000000010100000000000000'
p1030
sg47
S'1644'
p1031
sS'DE071'
p1032
S'00000036'
p1033
sS'DE094'
p1034
S'001662'
p1035
sS'DE093'
p1036
S'003869'
p1037
sS'DE100'
p1038
S'003869'
p1039
ssS'11'
p1040
(dp1041
S'DE048'
p1042
(dp1043
S'PDS0164'
p1044
S'45893696000000M1503240646281544000000M1503240647873145000000M1503240648083670000000M1503240648481494680000M1503240649661989500000M1503240649881863000000M1503240650499839593000M1503240651290385015000M1503240651681195610000M15032406'
p1045
ssg39
S'0000001000000000000000000000110000010000000000000000000000000000'
p1046
sS'DE024'
p1047
S'640'
p1048
sS'DE050'
p1049
S'840'
p1050
sg45
S'1000000000000000000000010000000000000000000000010100000000000000'
p1051
sg47
S'1644'
p1052
sS'DE071'
p1053
S'00000009'
p1054
sS'DE094'
p1055
S'001662'
p1056
sS'DE093'
p1057
S'003869'
p1058
sS'DE100'
p1059
S'003869'
p1060
ssS'10'
p1061
(dp1062
S'DE048'
p1063
(dp1064
S'PDS0164'
p1065
S'41490299600000M1503240641786231250000M1503240641868115000000M1503240642261507500000M1503240642681196050000M1503240643088450000000M1503240643491397500000M1503240644092853900000M1503240644697988165000M1503240645474368500000M15032406'
p1066
ssg39
S'0000001000000000000000000000110000010000000000000000000000000000'
p1067
sS'DE024'
p1068
S'640'
p1069
sS'DE050'
p1070
S'840'
p1071
sg45
S'1000000000000000000000010000000000000000000000010100000000000000'
p1072
sg47
S'1644'
p1073
sS'DE071'
p1074
S'00000008'
p1075
sS'DE094'
p1076
S'001662'
p1077
sS'DE093'
p1078
S'003869'
p1079
sS'DE100'
p1080
S'003869'
p1081
ssS'13'
p1082
(dp1083
S'DE048'
p1084
(dp1085
S'PDS0164'
p1086
S'59892657097000M1503240660064815060000M1503240660493078500000M1503240660884473500000M1503240663493641400000M1503240664385987675000M1503240664676905000000M1503240665490649562000M1503240667852249800000M1503240668293750350000M15032406'
p1087
ssg39
S'0000001000000000000000000000110000010000000000000000000000000000'
p1088
sS'DE024'
p1089
S'640'
p1090
sS'DE050'
p1091
S'840'
p1092
sg45
S'1000000000000000000000010000000000000000000000010100000000000000'
p1093
sg47
S'1644'
p1094
sS'DE071'
p1095
S'00000011'
p1096
sS'DE094'
p1097
S'001662'
p1098
sS'DE093'
p1099
S'003869'
p1100
sS'DE100'
p1101
S'003869'
p1102
ssS'12'
p1103
(dp1104
S'DE048'
p1105
(dp1106
S'PDS0164'
p1107
S'52489964000000M1503240653291790000000M1503240653391790000000M1503240654871050000000M1503240655491308729000M1503240655882625000000M1503240656671997000000M1503240657898070450000M1503240658671018450000M1503240659091000000000M15032406'
p1108
ssg39
S'0000001000000000000000000000110000010000000000000000000000000000'
p1109
sS'DE024'
p1110
S'640'
p1111
sS'DE050'
p1112
S'840'
p1113
sg45
S'1000000000000000000000010000000000000000000000010100000000000000'
p1114
sg47
S'1644'
p1115
sS'DE071'
p1116
S'00000010'
p1117
sS'DE094'
p1118
S'001662'
p1119
sS'DE093'
p1120
S'003869'
p1121
sS'DE100'
p1122
S'003869'
p1123
ssS'15'
p1124
(dp1125
S'DE048'
p1126
(dp1127
S'PDS0164'
p1128
S'76483253690000M1503240677691986080000M1503240678096338550000M1503240678493672950000M1503240678891918700000M1503240680062960000000M1503240680785724790000M1503240681897630050000M1503240682690668740000M1503240683461843000000M15032406'
p1129
ssg39
S'0000001000000000000000000000110000010000000000000000000000000000'
p1130
sS'DE024'
p1131
S'640'
p1132
sS'DE050'
p1133
S'840'
p1134
sg45
S'1000000000000000000000010000000000000000000000010100000000000000'
p1135
sg47
S'1644'
p1136
sS'DE071'
p1137
S'00000013'
p1138
sS'DE094'
p1139
S'001662'
p1140
sS'DE093'
p1141
S'003869'
p1142
sS'DE100'
p1143
S'003869'
p1144
ssS'14'
p1145
(dp1146
S'DE048'
p1147
(dp1148
S'PDS0164'
p1149
S'69081364480000M1503240669464370000000M1503240670291378800000M1503240670452152500000M1503240670677075000000M1503240671081190265000M1503240672892950000000M1503240674881195850000M1503240675298656950000M1503240675690981050000M15032406'
p1150
ssg39
S'0000001000000000000000000000110000010000000000000000000000000000'
p1151
sS'DE024'
p1152
S'640'
p1153
sS'DE050'
p1154
S'840'
p1155
sg45
S'1000000000000000000000010000000000000000000000010100000000000000'
p1156
sg47
S'1644'
p1157
sS'DE071'
p1158
S'00000012'
p1159
sS'DE094'
p1160
S'001662'
p1161
sS'DE093'
p1162
S'003869'
p1163
sS'DE100'
p1164
S'003869'
p1165
ssS'17'
p1166
(dp1167
S'DE048'
p1168
(dp1169
S'PDS0164'
p1170
S'94383515000000M1503240694491048600000M1503240694694057400000M1503240694992572200000M1503240695076061200000M1503240695192702550000M1503240695276075000000M1503240695371095900000M1503240696797735000000M1503240696893272000000M15032406'
p1171
ssg39
S'0000001000000000000000000000110000010000000000000000000000000000'
p1172
sS'DE024'
p1173
S'640'
p1174
sS'DE050'
p1175
S'840'
p1176
sg45
S'1000000000000000000000010000000000000000000000010100000000000000'
p1177
sg47
S'1644'
p1178
sS'DE071'
p1179
S'00000015'
p1180
sS'DE094'
p1181
S'001662'
p1182
sS'DE093'
p1183
S'003869'
p1184
sS'DE100'
p1185
S'003869'
p1186
ssS'16'
p1187
(dp1188
S'DE048'
p1189
(dp1190
S'PDS0164'
p1191
S'84091000000000M1503240685882552500000M1503240686062478230000M1503240688292497380000M1503240688672148900000M1503240690183128300000M1503240693493499000000M1503240693693638700000M1503240693781200000000M1503240694171103350000M15032406'
p1192
ssg39
S'0000001000000000000000000000110000010000000000000000000000000000'
p1193
sS'DE024'
p1194
S'640'
p1195
sS'DE050'
p1196
S'840'
p1197
sg45
S'1000000000000000000000010000000000000000000000010100000000000000'
p1198
sg47
S'1644'
p1199
sS'DE071'
p1200
S'00000014'
p1201
sS'DE094'
p1202
S'001662'
p1203
sS'DE093'
p1204
S'003869'
p1205
sS'DE100'
p1206
S'003869'
p1207
ssS'19'
p1208
(dp1209
S'DE048'
p1210
(dp1211
S'PDS0164'
p1212
S'98192227800000M1503240698593841850000M1503240698693177700000M1503240699671893901380M15032406'
p1213
ssg39
S'0000001000000000000000000000110000010000000000000000000000000000'
p1214
sS'DE024'
p1215
S'640'
p1216
sS'DE050'
p1217
S'840'
p1218
sg45
S'1000000000000000000000010000000000000000000000010100000000000000'
p1219
sg47
S'1644'
p1220
sS'DE071'
p1221
S'00000017'
p1222
sS'DE094'
p1223
S'001662'
p1224
sS'DE093'
p1225
S'003869'
p1226
sS'DE100'
p1227
S'003869'
p1228
ssS'18'
p1229
(dp1230
S'DE048'
p1231
(dp1232
S'PDS0164'
p1233
S'96962987000000M1503240697185770000000M1503240697295700900000M1503240697371073950000M1503240697451468000000M1503240697591796000000M1503240697679210000000M1503240697791792366000M1503240697890913784000M1503240698082265000000M15032406'
p1234
ssg39
S'0000001000000000000000000000110000010000000000000000000000000000'
p1235
sS'DE024'
p1236
S'640'
p1237
sS'DE050'
p1238
S'840'
p1239
sg45
S'1000000000000000000000010000000000000000000000010100000000000000'
p1240
sg47
S'1644'
p1241
sS'DE071'
p1242
S'00000016'
p1243
sS'DE094'
p1244
S'001662'
p1245
sS'DE093'
p1246
S'003869'
p1247
sS'DE100'
p1248
S'003869'
p1249
ssS'31'
p1250
(dp1251
S'DE048'
p1252
(dp1253
S'PDS0164'
p1254
S'76483233950000B1503240677691904762000B1503240678096314000000B1503240678493672900000B1503240678891918700000B1503240680062955000000B1503240680785724790000B1503240681897630000000B1503240682690668673000B1503240683461838000000B15032406'
p1255
ssg39
S'0000001000000000000000000000110000010000000000000000000000000000'
p1256
sS'DE024'
p1257
S'640'
p1258
sS'DE050'
p1259
S'840'
p1260
sg45
S'1000000000000000000000010000000000000000000000010100000000000000'
p1261
sg47
S'1644'
p1262
sS'DE071'
p1263
S'00000029'
p1264
sS'DE094'
p1265
S'001662'
p1266
sS'DE093'
p1267
S'003869'
p1268
sS'DE100'
p1269
S'003869'
p1270
ssS'30'
p1271
(dp1272
S'DE048'
p1273
(dp1274
S'PDS0164'
p1275
S'69081339250000B1503240669464320000000B1503240670291378600000B1503240670452149000000B1503240670677040000000B1503240671081189890000B1503240672892937700000B1503240674881193300000B1503240675298655200000B1503240675690980900000B15032406'
p1276
ssg39
S'0000001000000000000000000000110000010000000000000000000000000000'
p1277
sS'DE024'
p1278
S'640'
p1279
sS'DE050'
p1280
S'840'
p1281
sg45
S'1000000000000000000000010000000000000000000000010100000000000000'
p1282
sg47
S'1644'
p1283
sS'DE071'
p1284
S'00000028'
p1285
sS'DE094'
p1286
S'001662'
p1287
sS'DE093'
p1288
S'003869'
p1289
sS'DE100'
p1290
S'003869'
p1291
ssS'37'
p1292
(dp1293
S'DE048'
p1294
(dp1295
S'PDS0164'
p1296
S'06486228000000S1503240606896960000000S1503240607299881423000S1503240608492017500000S1503240609097812500000S1503240609691379000000S1503240610461036000000S1503240610861581100000S1503240611664015000000S1503240612491261500000S15032406'
p1297
ssg39
S'0000001000000000000000000000110000010000000000000000000000000000'
p1298
sS'DE024'
p1299
S'640'
p1300
sS'DE050'
p1301
S'840'
p1302
sg45
S'1000000000000000000000010000000000000000000000010100000000000000'
p1303
sg47
S'1644'
p1304
sS'DE071'
p1305
S'00000035'
p1306
sS'DE094'
p1307
S'001662'
p1308
sS'DE093'
p1309
S'003869'
p1310
sS'DE100'
p1311
S'003869'
p1312
ssS'36'
p1313
(dp1314
S'DE048'
p1315
(dp1316
S'PDS0164'
p1317
S'00871291300000S1503240601289631640000S1503240603298800000000S1503240603691288494000S1503240604491000000000S1503240604890377030000S1503240605087803000000S1503240605174777100000S1503240605292027680000S1503240606091000000000S15032406'
p1318
ssg39
S'0000001000000000000000000000110000010000000000000000000000000000'
p1319
sS'DE024'
p1320
S'640'
p1321
sS'DE050'
p1322
S'840'
p1323
sg45
S'1000000000000000000000010000000000000000000000010100000000000000'
p1324
sg47
S'1644'
p1325
sS'DE071'
p1326
S'00000034'
p1327
sS'DE094'
p1328
S'001662'
p1329
sS'DE093'
p1330
S'003869'
p1331
sS'DE100'
p1332
S'003869'
p1333
ssS'35'
p1334
(dp1335
S'DE048'
p1336
(dp1337
S'PDS0164'
p1338
S'98192212000000B1503240698593840600000B1503240698693177400000B1503240699671893901380B15032406'
p1339
ssg39
S'0000001000000000000000000000110000010000000000000000000000000000'
p1340
sS'DE024'
p1341
S'640'
p1342
sS'DE050'
p1343
S'840'
p1344
sg45
S'1000000000000000000000010000000000000000000000010100000000000000'
p1345
sg47
S'1644'
p1346
sS'DE071'
p1347
S'00000033'
p1348
sS'DE094'
p1349
S'001662'
p1350
sS'DE093'
p1351
S'003869'
p1352
sS'DE100'
p1353
S'003869'
p1354
ssS'34'
p1355
(dp1356
S'DE048'
p1357
(dp1358
S'PDS0164'
p1359
S'96962977000000B1503240697185770000000B1503240697295700900000B1503240697371068950000B1503240697451468000000B1503240697591795800000B1503240697679160000000B1503240697791787885000B1503240697890913659000B1503240698082250000000B15032406'
p1360
ssg39
S'0000001000000000000000000000110000010000000000000000000000000000'
p1361
sS'DE024'
p1362
S'640'
p1363
sS'DE050'
p1364
S'840'
p1365
sg45
S'1000000000000000000000010000000000000000000000010100000000000000'
p1366
sg47
S'1644'
p1367
sS'DE071'
p1368
S'00000032'
p1369
sS'DE094'
p1370
S'001662'
p1371
sS'DE093'
p1372
S'003869'
p1373
sS'DE100'
p1374
S'003869'
p1375
ssS'33'
p1376
(dp1377
S'DE048'
p1378
(dp1379
S'PDS0164'
p1380
S'94383480000000B1503240694491048600000B1503240694694054400000B1503240694992569900000B1503240695076041200000B1503240695192688200000B1503240695276040000000B1503240695371091400000B1503240696797725000000B1503240696893247000000B15032406'
p1381
ssg39
S'0000001000000000000000000000110000010000000000000000000000000000'
p1382
sS'DE024'
p1383
S'640'
p1384
sS'DE050'
p1385
S'840'
p1386
sg45
S'1000000000000000000000010000000000000000000000010100000000000000'
p1387
sg47
S'1644'
p1388
sS'DE071'
p1389
S'00000031'
p1390
sS'DE094'
p1391
S'001662'
p1392
sS'DE093'
p1393
S'003869'
p1394
sS'DE100'
p1395
S'003869'
p1396
ssS'55'
p1397
(dp1398
S'DE048'
p1399
(dp1400
S'PDS0300'
p1401
S'0011503240000000386905601'
p1402
sS'PDS0381'
p1403
S'C0000000000000000'
p1404
sS'PDS0380'
p1405
S'D0000000000173645'
p1406
sS'PDS0148'
p1407
S'1562'
p1408
sS'PDS0384'
p1409
S'D0000000000173645'
p1410
sS'PDS0400'
p1411
S'0000000003'
p1412
sS'PDS0401'
p1413
S'0000000000'
p1414
sS'PDS0402'
p1415
S'0000000003'
p1416
ssS'DE049'
p1417
S'156'
p1418
sg39
S'0000001000000000000000000000100000010000000000000000000000000000'
p1419
sS'DE024'
p1420
S'680'
p1421
sS'DE025'
p1422
S'6862'
p1423
sg45
S'1000000000000000000000011000000000000000000000011000000000000000'
p1424
sg47
S'1644'
p1425
sS'DE071'
p1426
S'00000053'
p1427
sS'DE093'
p1428
S'003869'
p1429
sS'DE100'
p1430
S'003869'
p1431
ssS'32'
p1432
(dp1433
S'DE048'
p1434
(dp1435
S'PDS0164'
p1436
S'84091000000000B1503240685882550000000B1503240686062478230000B1503240688292444390000B1503240688672148700000B1503240690183128000000B1503240693493349000000B1503240693693636900000B1503240693781200000000B1503240694171102400000B15032406'
p1437
ssg39
S'0000001000000000000000000000110000010000000000000000000000000000'
p1438
sS'DE024'
p1439
S'640'
p1440
sS'DE050'
p1441
S'840'
p1442
sg45
S'1000000000000000000000010000000000000000000000010100000000000000'
p1443
sg47
S'1644'
p1444
sS'DE071'
p1445
S'00000030'
p1446
sS'DE094'
p1447
S'001662'
p1448
sS'DE093'
p1449
S'003869'
p1450
sS'DE100'
p1451
S'003869'
p1452
ssS'57'
p1453
(dp1454
S'DE048'
p1455
(dp1456
S'PDS0301'
p1457
S'0000000000173645'
p1458
sS'PDS0105'
p1459
S'0011503240000000386999601'
p1460
sS'PDS0306'
p1461
S'00000055'
p1462
ssg39
S'0000001000000000000000000000000000000000000000000000000000000000'
p1463
sS'DE024'
p1464
S'695'
p1465
sg45
S'1000000000000000000000010000000000000000000000010000000000000000'
p1466
sg47
S'1644'
p1467
sS'DE071'
p1468
S'00000055'
p1469
ssS'50'
p1470
(dp1471
S'DE048'
p1472
(dp1473
S'PDS0164'
p1474
S'96962997000000S1503240697185770000000S1503240697295700900000S1503240697371078950000S1503240697451468000000S1503240697591796200000S1503240697679260000000S1503240697791796847000S1503240697890913910000S1503240698082280000000S15032406'
p1475
ssg39
S'0000001000000000000000000000110000010000000000000000000000000000'
p1476
sS'DE024'
p1477
S'640'
p1478
sS'DE050'
p1479
S'840'
p1480
sg45
S'1000000000000000000000010000000000000000000000010100000000000000'
p1481
sg47
S'1644'
p1482
sS'DE071'
p1483
S'00000048'
p1484
sS'DE094'
p1485
S'001662'
p1486
sS'DE093'
p1487
S'003869'
p1488
sS'DE100'
p1489
S'003869'
p1490
ss.