(dp0
S'1'
p1
(dp2
S'DE048'
p3
(dp4
S'PDS0164'
p5
S'19197020200000M1503240619291000000000M1503240620382509950000M1503240620896922750000M1503240621484470000000M1503240622298750000000M1503240623082050000000M1503240623890668740000M1503240624292034799000M1503240626271767500000M15032406'
p6
ssS'DE001'
p7
S'0000001000000000000000000000110000010000000000000000000000000000'
p8
sS'DE024'
p9
S'640'
p10
sS'DE050'
p11
S'840'
p12
sS'bitmap_primary'
p13
S'1000000000000000000000010000000000000000000000010100000000000000'
p14
sS'MTI'
p15
S'1644'
p16
sS'DE071'
p17
S'00000005'
p18
sS'DE094'
p19
S'001662'
p20
sS'DE093'
p21
S'003869'
p22
sS'DE100'
p23
S'003869'
p24
ssS'0'
p25
(dp26
S'DE048'
p27
(dp28
S'PDS0105'
p29
S'0011503240000000386999601'
p30
sS'PDS0122'
p31
S'T'
p32
ssg7
S'0000001000000000000000000000000000000000000000000000000000000000'
p33
sS'DE024'
p34
S'697'
p35
sg13
S'1000000000000000000000010000000000000000000000010000000000000000'
p36
sg15
S'1644'
p37
sS'DE071'
p38
S'00000001'
p39
ssS'2'
p40
(dp41
S'DE049'
p42
S'156'
p43
sS'DE071'
p44
S'00000050'
p45
sS'DE094'
p46
S'001867'
p47
sS'DE023'
p48
S'000'
p49
sS'DE093'
p50
S'003869'
p51
sS'DE100'
p52
S'003869'
p53
sS'DE033'
p54
S'001867'
p55
sS'DE031'
p56
S'55418675083030300156029'
p57
sS'DE010'
p58
S'51924000'
p59
sS'DE012'
p60
S'150316000000'
p61
sS'DE051'
p62
S'392'
p63
sS'DE050'
p64
S'840'
p65
sS'DE038'
p66
S'647616'
p67
sS'DE048'
p68
(dp69
S'PDS0023'
p70
S'POI'
p71
sS'PDS0146'
p72
S'002901840000000000005840000000000005'
p73
sS'PDS0158'
p74
S'MCC20400018515032405    NNNNNN'
p75
sS'PDS0159'
p76
S'3869       4631231770                  1US00000001N1503240515032401'
p77
sS'PDS0148'
p78
S'156284023920'
p79
sS'PDS0191'
p80
g40
sS'PDS0002'
p81
S'MCS'
p82
sS'PDS0003'
p83
S'MCS'
p84
sS'PDS0165'
p85
S'M'
p86
sS'PDS0177'
p87
S'YY'
p88
ssg15
S'1240'
p89
sS'DE111'
p90
S'012000000000'
p91
sS'DE006'
p92
S'000000000481'
p93
sS'DE004'
p94
S'000000002500'
p95
sS'DE005'
p96
S'000000000403'
p97
sS'DE002'
p98
S'5442999999999999'
p99
sS'DE003'
p100
S'000000'
p101
sg7
S'0000001000000000000000000000110000010000000000100000000000000000'
p102
sS'DE024'
p103
S'200'
p104
sS'DE025'
p105
S'1400'
p106
sS'DE026'
p107
S'5311'
p108
sS'DE022'
p109
S'D00301C99300'
p110
sS'DE009'
p111
S'71612000'
p112
sg13
S'1111110011010000000001111100001010000101011000011110000000000010'
p113
sS'DE042'
p114
S'0303404871     '
p115
sS'DE063'
p116
S' MCSJQVS6A0316  '
p117
sS'DE043'
p118
S'XIANGXUEHAI INTERNATIO\\NO1,Fuxingmen NeiDajie,Beijing,China\\SHANGHAI\\100818       CHN'
p119
sS'DE040'
p120
S'201'
p121
ss.