(dp0
S'1'
p1
(dp2
S'DE001'
p3
S'0000001000000000000000000000000000000000000000000000000000000000'
p4
sS'DE024'
p5
S'697'
p6
sS'bitmap_primary'
p7
S'1000000000000000000000010000000000000000000000010000000000000000'
p8
sS'MTI'
p9
S'1644'
p10
sS'PDS0105'
p11
S'0011503240000000386999601'
p12
sS'PDS0122'
p13
S'T'
p14
sS'DE071'
p15
S'00000001'
p16
ssS'2'
p17
(dp18
g3
S'0000001000000000000000000000110000010000000000000000000000000000'
p19
sS'DE024'
p20
S'640'
p21
sS'DE050'
p22
S'840'
p23
sg7
S'1000000000000000000000010000000000000000000000010100000000000000'
p24
sg9
S'1644'
p25
sS'DE071'
p26
S'00000002'
p27
sS'DE094'
p28
S'001662'
p29
sS'DE100'
p30
S'003869'
p31
sS'DE093'
p32
S'003869'
p33
sS'PDS0164'
p34
S'00871289950000M1503240601289605740000M1503240603298797500000M1503240603691288245000M1503240604491000000000M1503240604890377015000M1503240605087790500000M1503240605174777100000M1503240605292008840000M1503240606091000000000M15032406'
p35
ss.