(dp0
S'1'
p1
(dp2
S'DE048'
p3
(dp4
S'PDS0105'
p5
S'0011503240000000386999601'
p6
sS'PDS0122'
p7
S'T'
p8
ssS'DE001'
p9
S'0000001000000000000000000000000000000000000000000000000000000000'
p10
sS'DE024'
p11
S'697'
p12
sS'bitmap_primary'
p13
S'1000000000000000000000010000000000000000000000010000000000000000'
p14
sS'MTI'
p15
S'1644'
p16
sS'DE071'
p17
S'00000001'
p18
ssS'2'
p19
(dp20
S'DE048'
p21
(dp22
S'PDS0164'
p23
S'19197020200000M1503240619291000000000M1503240620382509950000M1503240620896922750000M1503240621484470000000M1503240622298750000000M1503240623082050000000M1503240623890668740000M1503240624292034799000M1503240626271767500000M15032406'
p24
ssg9
S'0000001000000000000000000000110000010000000000000000000000000000'
p25
sS'DE024'
p26
S'640'
p27
sS'DE050'
p28
S'840'
p29
sg13
S'1000000000000000000000010000000000000000000000010100000000000000'
p30
sg15
S'1644'
p31
sS'DE071'
p32
S'00000005'
p33
sS'DE094'
p34
S'001662'
p35
sS'DE093'
p36
S'003869'
p37
sS'DE100'
p38
S'003869'
p39
ss.