(dp0
S'1'
p1
(dp2
S'DE001'
p3
S'0000001000000000000000000000000000000000000000000000000000000000'
p4
sS'DE024'
p5
S'697'
p6
sS'bitmap_primary'
p7
S'1000000000000000000000010000000000000000000000010000000000000000'
p8
sS'MTI'
p9
S'1644'
p10
sS'PDS0105'
p11
S'0011503240000000386999601'
p12
sS'PDS0122'
p13
S'T'
p14
sS'DE071'
p15
S'00000001'
p16
ss.